ARM GAS  /tmp/ccKYPvWI.s 			page 1


   1              		.cpu cortex-m3
   2              		.eabi_attribute 20, 1
   3              		.eabi_attribute 21, 1
   4              		.eabi_attribute 23, 3
   5              		.eabi_attribute 24, 1
   6              		.eabi_attribute 25, 1
   7              		.eabi_attribute 26, 1
   8              		.eabi_attribute 30, 1
   9              		.eabi_attribute 34, 1
  10              		.eabi_attribute 18, 4
  11              		.file	"mpu9250.c"
  12              		.text
  13              	.Ltext0:
  14              		.cfi_sections	.debug_frame
  15              		.section	.text.IICreadBytes,"ax",%progbits
  16              		.align	1
  17              		.syntax unified
  18              		.thumb
  19              		.thumb_func
  20              		.fpu softvfp
  22              	IICreadBytes:
  23              	.LFB65:
  24              		.file 1 "Src/mpu9250.c"
   1:Src/mpu9250.c **** 
   2:Src/mpu9250.c **** // https://github.com/AnswerInTheWind/Peripheral/blob/master/MPU9250-MPU6050/dmp.c
   3:Src/mpu9250.c **** #include "config.h"
   4:Src/mpu9250.c **** #include "math.h"
   5:Src/mpu9250.c **** #include "mpu9250.h"
   6:Src/mpu9250.c **** 
   7:Src/mpu9250.c **** extern I2C_HandleTypeDef hi2c1;
   8:Src/mpu9250.c **** 
   9:Src/mpu9250.c **** float q[4]; //  Èç•Ê∂òÂéìÈèÅÔøΩ
  10:Src/mpu9250.c **** float gyrof[3];  //  X/Y/Z ÁëôÊéóÔøΩÁÜ∑ÂÆ≥
  11:Src/mpu9250.c **** float accelf[3]; //  X/Y/Z ÈçîÁäªÔøΩÁÜ∑ÂÆ≥
  12:Src/mpu9250.c **** float yprf[3];   //  yaw/pitch/roll 
  13:Src/mpu9250.c **** float mag[3];
  14:Src/mpu9250.c **** unsigned char dmpdatas[42];
  15:Src/mpu9250.c **** 
  16:Src/mpu9250.c **** const unsigned char dmpmemorydata[1929]={
  17:Src/mpu9250.c ****  // bank 0, 256 bytes
  18:Src/mpu9250.c ****     0xFB, 0x00, 0x00, 0x3E, 0x00, 0x0B, 0x00, 0x36, 0x00, 0x01, 0x00, 0x02, 0x00, 0x03, 0x00, 0x00,
  19:Src/mpu9250.c ****     0x00, 0x65, 0x00, 0x54, 0xFF, 0xEF, 0x00, 0x00, 0xFA, 0x80, 0x00, 0x0B, 0x12, 0x82, 0x00, 0x01,
  20:Src/mpu9250.c ****     0x00, 0x02, 0x00, 0x00, 0x00, 0x00, 0x00, 0x00, 0x00, 0x00, 0x00, 0x00, 0x00, 0x00, 0x00, 0x00,
  21:Src/mpu9250.c ****     0x00, 0x28, 0x00, 0x00, 0xFF, 0xFF, 0x45, 0x81, 0xFF, 0xFF, 0xFA, 0x72, 0x00, 0x00, 0x00, 0x00,
  22:Src/mpu9250.c ****     0x00, 0x00, 0x03, 0xE8, 0x00, 0x00, 0x00, 0x01, 0x00, 0x01, 0x7F, 0xFF, 0xFF, 0xFE, 0x80, 0x01,
  23:Src/mpu9250.c ****     0x00, 0x1B, 0x00, 0x00, 0x00, 0x00, 0x00, 0x00, 0x00, 0x00, 0x00, 0x00, 0x00, 0x00, 0x00, 0x00,
  24:Src/mpu9250.c ****     0x00, 0x3E, 0x03, 0x30, 0x40, 0x00, 0x00, 0x00, 0x02, 0xCA, 0xE3, 0x09, 0x3E, 0x80, 0x00, 0x00,
  25:Src/mpu9250.c ****     0x20, 0x00, 0x00, 0x00, 0x00, 0x00, 0x00, 0x00, 0x40, 0x00, 0x00, 0x00, 0x60, 0x00, 0x00, 0x00,
  26:Src/mpu9250.c ****     0x41, 0xFF, 0x00, 0x00, 0x00, 0x00, 0x0B, 0x2A, 0x00, 0x00, 0x16, 0x55, 0x00, 0x00, 0x21, 0x82,
  27:Src/mpu9250.c ****     0xFD, 0x87, 0x26, 0x50, 0xFD, 0x80, 0x00, 0x00, 0x00, 0x1F, 0x00, 0x00, 0x00, 0x05, 0x80, 0x00,
  28:Src/mpu9250.c ****     0x00, 0x00, 0x00, 0x00, 0x00, 0x01, 0x00, 0x00, 0x00, 0x02, 0x00, 0x00, 0x00, 0x03, 0x00, 0x00,
  29:Src/mpu9250.c ****     0x40, 0x00, 0x00, 0x00, 0x00, 0x00, 0x04, 0x6F, 0x00, 0x02, 0x65, 0x32, 0x00, 0x00, 0x5E, 0xC0,
  30:Src/mpu9250.c ****     0x40, 0x00, 0x00, 0x00, 0x00, 0x00, 0x00, 0x00, 0x00, 0x00, 0x00, 0x00, 0x00, 0x00, 0x00, 0x00,
  31:Src/mpu9250.c ****     0xFB, 0x8C, 0x6F, 0x5D, 0xFD, 0x5D, 0x08, 0xD9, 0x00, 0x7C, 0x73, 0x3B, 0x00, 0x6C, 0x12, 0xCC,
  32:Src/mpu9250.c ****     0x32, 0x00, 0x13, 0x9D, 0x32, 0x00, 0xD0, 0xD6, 0x32, 0x00, 0x08, 0x00, 0x40, 0x00, 0x01, 0xF4,
  33:Src/mpu9250.c ****     0xFF, 0xE6, 0x80, 0x79, 0x02, 0x00, 0x00, 0x00, 0x00, 0x00, 0xD0, 0xD6, 0x00, 0x00, 0x27, 0x10,
  34:Src/mpu9250.c **** 
ARM GAS  /tmp/ccKYPvWI.s 			page 2


  35:Src/mpu9250.c ****     // bank 1, 256 bytes
  36:Src/mpu9250.c ****     0xFB, 0x00, 0x00, 0x00, 0x40, 0x00, 0x00, 0x00, 0x00, 0x00, 0x00, 0x00, 0x00, 0x00, 0x00, 0x00,
  37:Src/mpu9250.c ****     0x00, 0x00, 0x00, 0x01, 0x00, 0x00, 0x00, 0x00, 0x00, 0x00, 0x01, 0x00, 0x01, 0x00, 0x00, 0x00,
  38:Src/mpu9250.c ****     0x00, 0x00, 0xFA, 0x36, 0xFF, 0xBC, 0x30, 0x8E, 0x00, 0x05, 0xFB, 0xF0, 0xFF, 0xD9, 0x5B, 0xC8,
  39:Src/mpu9250.c ****     0xFF, 0xD0, 0x9A, 0xBE, 0x00, 0x00, 0x10, 0xA9, 0xFF, 0xF4, 0x1E, 0xB2, 0x00, 0xCE, 0xBB, 0xF7,
  40:Src/mpu9250.c ****     0x00, 0x00, 0x00, 0x01, 0x00, 0x00, 0x00, 0x04, 0x00, 0x02, 0x00, 0x02, 0x02, 0x00, 0x00, 0x0C,
  41:Src/mpu9250.c ****     0xFF, 0xC2, 0x80, 0x00, 0x00, 0x01, 0x80, 0x00, 0x00, 0xCF, 0x80, 0x00, 0x40, 0x00, 0x00, 0x00,
  42:Src/mpu9250.c ****     0x00, 0x00, 0x00, 0x01, 0x00, 0x00, 0x00, 0x00, 0x00, 0x00, 0x06, 0x00, 0x00, 0x00, 0x00, 0x14,
  43:Src/mpu9250.c ****     0x00, 0x00, 0x00, 0x00, 0x00, 0x00, 0x00, 0x00, 0x00, 0x00, 0x00, 0x00, 0x00, 0x00, 0x00, 0x00,
  44:Src/mpu9250.c ****     0x00, 0x00, 0x00, 0x00, 0x00, 0x00, 0x00, 0x00, 0x00, 0x00, 0x00, 0x00, 0x00, 0x00, 0x00, 0x00,
  45:Src/mpu9250.c ****     0x00, 0x00, 0x00, 0x00, 0x00, 0x00, 0x00, 0x00, 0x00, 0x00, 0x00, 0x00, 0x00, 0x00, 0x00, 0x00,
  46:Src/mpu9250.c ****     0x00, 0x00, 0x00, 0x00, 0x03, 0x3F, 0x68, 0xB6, 0x79, 0x35, 0x28, 0xBC, 0xC6, 0x7E, 0xD1, 0x6C,
  47:Src/mpu9250.c ****     0x80, 0x00, 0x00, 0x00, 0x40, 0x00, 0x00, 0x00, 0x00, 0x00, 0xB2, 0x6A, 0x00, 0x00, 0x00, 0x00,
  48:Src/mpu9250.c ****     0x00, 0x00, 0x00, 0x00, 0x00, 0x00, 0x00, 0x00, 0x00, 0x00, 0x3F, 0xF0, 0x00, 0x00, 0x00, 0x30,
  49:Src/mpu9250.c ****     0x00, 0x00, 0x00, 0x00, 0x00, 0x00, 0x00, 0x00, 0x00, 0x00, 0x00, 0x00, 0x00, 0x00, 0x00, 0x00,
  50:Src/mpu9250.c ****     0x00, 0x00, 0x00, 0x00, 0x00, 0x00, 0x00, 0x00, 0x00, 0x00, 0x00, 0x00, 0x00, 0x00, 0x00, 0x00,
  51:Src/mpu9250.c ****     0x00, 0x00, 0x25, 0x4D, 0x00, 0x2F, 0x70, 0x6D, 0x00, 0x00, 0x05, 0xAE, 0x00, 0x0C, 0x02, 0xD0,
  52:Src/mpu9250.c **** 
  53:Src/mpu9250.c ****     // bank 2, 256 bytes
  54:Src/mpu9250.c ****     0x00, 0x00, 0x00, 0x00, 0x00, 0x65, 0x00, 0x54, 0xFF, 0xEF, 0x00, 0x00, 0x00, 0x00, 0x00, 0x00,
  55:Src/mpu9250.c ****     0x00, 0x00, 0x01, 0x00, 0x00, 0x44, 0x00, 0x00, 0x00, 0x00, 0x0C, 0x00, 0x00, 0x00, 0x01, 0x00,
  56:Src/mpu9250.c ****     0x00, 0x00, 0x00, 0x00, 0x00, 0x65, 0x00, 0x00, 0x00, 0x54, 0x00, 0x00, 0xFF, 0xEF, 0x00, 0x00,
  57:Src/mpu9250.c ****     0x00, 0x00, 0x00, 0x00, 0x00, 0x00, 0x00, 0x00, 0x00, 0x00, 0x00, 0x00, 0x00, 0x00, 0x00, 0x00,
  58:Src/mpu9250.c ****     0x40, 0x00, 0x00, 0x00, 0x00, 0x00, 0x00, 0x00, 0x00, 0x00, 0x00, 0x00, 0x00, 0x00, 0x00, 0x00,
  59:Src/mpu9250.c ****     0x40, 0x00, 0x00, 0x00, 0x00, 0x00, 0x00, 0x00, 0x00, 0x00, 0x00, 0x00, 0x00, 0x00, 0x00, 0x00,
  60:Src/mpu9250.c ****     0x00, 0x00, 0x00, 0x01, 0x00, 0x00, 0x00, 0x02, 0x00, 0x00, 0x00, 0x00, 0x00, 0x00, 0x00, 0x00,
  61:Src/mpu9250.c ****     0x00, 0x00, 0x00, 0x00, 0x00, 0x00, 0x00, 0x00, 0x00, 0x00, 0x00, 0x00, 0x00, 0x00, 0x00, 0x00,
  62:Src/mpu9250.c ****     0x00, 0x00, 0x00, 0x00, 0x00, 0x00, 0x00, 0x00, 0x00, 0x00, 0x00, 0x00, 0x00, 0x00, 0x00, 0x00,
  63:Src/mpu9250.c ****     0x00, 0x1B, 0x00, 0x00, 0x00, 0x00, 0x00, 0x00, 0x00, 0x00, 0x00, 0x00, 0x00, 0x00, 0x00, 0x00,
  64:Src/mpu9250.c ****     0x00, 0x00, 0x00, 0x00, 0x00, 0x00, 0x00, 0x00, 0x00, 0x00, 0x00, 0x00, 0x00, 0x00, 0x00, 0x00,
  65:Src/mpu9250.c ****     0x00, 0x00, 0x00, 0x00, 0x00, 0x00, 0x00, 0x00, 0x00, 0x00, 0x00, 0x00, 0x40, 0x00, 0x00, 0x00,
  66:Src/mpu9250.c ****     0x00, 0x1B, 0x00, 0x00, 0x00, 0x00, 0x00, 0x00, 0x00, 0x00, 0x00, 0x00, 0x00, 0x00, 0x00, 0x00,
  67:Src/mpu9250.c ****     0x00, 0x00, 0x00, 0x00, 0x00, 0x00, 0x00, 0x00, 0x00, 0x00, 0x00, 0x00, 0x00, 0x00, 0x00, 0x00,
  68:Src/mpu9250.c ****     0x00, 0x00, 0x00, 0x00, 0x00, 0x00, 0x00, 0x00, 0x00, 0x00, 0x00, 0x00, 0x00, 0x00, 0x00, 0x00,
  69:Src/mpu9250.c ****     0x00, 0x00, 0x00, 0x00, 0x00, 0x00, 0x00, 0x00, 0x00, 0x00, 0x00, 0x00, 0x00, 0x00, 0x00, 0x00,
  70:Src/mpu9250.c **** 
  71:Src/mpu9250.c ****     // bank 3, 256 bytes
  72:Src/mpu9250.c ****     0xD8, 0xDC, 0xBA, 0xA2, 0xF1, 0xDE, 0xB2, 0xB8, 0xB4, 0xA8, 0x81, 0x91, 0xF7, 0x4A, 0x90, 0x7F,
  73:Src/mpu9250.c ****     0x91, 0x6A, 0xF3, 0xF9, 0xDB, 0xA8, 0xF9, 0xB0, 0xBA, 0xA0, 0x80, 0xF2, 0xCE, 0x81, 0xF3, 0xC2,
  74:Src/mpu9250.c ****     0xF1, 0xC1, 0xF2, 0xC3, 0xF3, 0xCC, 0xA2, 0xB2, 0x80, 0xF1, 0xC6, 0xD8, 0x80, 0xBA, 0xA7, 0xDF,
  75:Src/mpu9250.c ****     0xDF, 0xDF, 0xF2, 0xA7, 0xC3, 0xCB, 0xC5, 0xB6, 0xF0, 0x87, 0xA2, 0x94, 0x24, 0x48, 0x70, 0x3C,
  76:Src/mpu9250.c ****     0x95, 0x40, 0x68, 0x34, 0x58, 0x9B, 0x78, 0xA2, 0xF1, 0x83, 0x92, 0x2D, 0x55, 0x7D, 0xD8, 0xB1,
  77:Src/mpu9250.c ****     0xB4, 0xB8, 0xA1, 0xD0, 0x91, 0x80, 0xF2, 0x70, 0xF3, 0x70, 0xF2, 0x7C, 0x80, 0xA8, 0xF1, 0x01,
  78:Src/mpu9250.c ****     0xB0, 0x98, 0x87, 0xD9, 0x43, 0xD8, 0x86, 0xC9, 0x88, 0xBA, 0xA1, 0xF2, 0x0E, 0xB8, 0x97, 0x80,
  79:Src/mpu9250.c ****     0xF1, 0xA9, 0xDF, 0xDF, 0xDF, 0xAA, 0xDF, 0xDF, 0xDF, 0xF2, 0xAA, 0xC5, 0xCD, 0xC7, 0xA9, 0x0C,
  80:Src/mpu9250.c ****     0xC9, 0x2C, 0x97, 0x97, 0x97, 0x97, 0xF1, 0xA9, 0x89, 0x26, 0x46, 0x66, 0xB0, 0xB4, 0xBA, 0x80,
  81:Src/mpu9250.c ****     0xAC, 0xDE, 0xF2, 0xCA, 0xF1, 0xB2, 0x8C, 0x02, 0xA9, 0xB6, 0x98, 0x00, 0x89, 0x0E, 0x16, 0x1E,
  82:Src/mpu9250.c ****     0xB8, 0xA9, 0xB4, 0x99, 0x2C, 0x54, 0x7C, 0xB0, 0x8A, 0xA8, 0x96, 0x36, 0x56, 0x76, 0xF1, 0xB9,
  83:Src/mpu9250.c ****     0xAF, 0xB4, 0xB0, 0x83, 0xC0, 0xB8, 0xA8, 0x97, 0x11, 0xB1, 0x8F, 0x98, 0xB9, 0xAF, 0xF0, 0x24,
  84:Src/mpu9250.c ****     0x08, 0x44, 0x10, 0x64, 0x18, 0xF1, 0xA3, 0x29, 0x55, 0x7D, 0xAF, 0x83, 0xB5, 0x93, 0xAF, 0xF0,
  85:Src/mpu9250.c ****     0x00, 0x28, 0x50, 0xF1, 0xA3, 0x86, 0x9F, 0x61, 0xA6, 0xDA, 0xDE, 0xDF, 0xD9, 0xFA, 0xA3, 0x86,
  86:Src/mpu9250.c ****     0x96, 0xDB, 0x31, 0xA6, 0xD9, 0xF8, 0xDF, 0xBA, 0xA6, 0x8F, 0xC2, 0xC5, 0xC7, 0xB2, 0x8C, 0xC1,
  87:Src/mpu9250.c ****     0xB8, 0xA2, 0xDF, 0xDF, 0xDF, 0xA3, 0xDF, 0xDF, 0xDF, 0xD8, 0xD8, 0xF1, 0xB8, 0xA8, 0xB2, 0x86,
  88:Src/mpu9250.c **** 
  89:Src/mpu9250.c ****     // bank 4, 256 bytes
  90:Src/mpu9250.c ****     0xB4, 0x98, 0x0D, 0x35, 0x5D, 0xB8, 0xAA, 0x98, 0xB0, 0x87, 0x2D, 0x35, 0x3D, 0xB2, 0xB6, 0xBA,
  91:Src/mpu9250.c ****     0xAF, 0x8C, 0x96, 0x19, 0x8F, 0x9F, 0xA7, 0x0E, 0x16, 0x1E, 0xB4, 0x9A, 0xB8, 0xAA, 0x87, 0x2C,
ARM GAS  /tmp/ccKYPvWI.s 			page 3


  92:Src/mpu9250.c ****     0x54, 0x7C, 0xB9, 0xA3, 0xDE, 0xDF, 0xDF, 0xA3, 0xB1, 0x80, 0xF2, 0xC4, 0xCD, 0xC9, 0xF1, 0xB8,
  93:Src/mpu9250.c ****     0xA9, 0xB4, 0x99, 0x83, 0x0D, 0x35, 0x5D, 0x89, 0xB9, 0xA3, 0x2D, 0x55, 0x7D, 0xB5, 0x93, 0xA3,
  94:Src/mpu9250.c ****     0x0E, 0x16, 0x1E, 0xA9, 0x2C, 0x54, 0x7C, 0xB8, 0xB4, 0xB0, 0xF1, 0x97, 0x83, 0xA8, 0x11, 0x84,
  95:Src/mpu9250.c ****     0xA5, 0x09, 0x98, 0xA3, 0x83, 0xF0, 0xDA, 0x24, 0x08, 0x44, 0x10, 0x64, 0x18, 0xD8, 0xF1, 0xA5,
  96:Src/mpu9250.c ****     0x29, 0x55, 0x7D, 0xA5, 0x85, 0x95, 0x02, 0x1A, 0x2E, 0x3A, 0x56, 0x5A, 0x40, 0x48, 0xF9, 0xF3,
  97:Src/mpu9250.c ****     0xA3, 0xD9, 0xF8, 0xF0, 0x98, 0x83, 0x24, 0x08, 0x44, 0x10, 0x64, 0x18, 0x97, 0x82, 0xA8, 0xF1,
  98:Src/mpu9250.c ****     0x11, 0xF0, 0x98, 0xA2, 0x24, 0x08, 0x44, 0x10, 0x64, 0x18, 0xDA, 0xF3, 0xDE, 0xD8, 0x83, 0xA5,
  99:Src/mpu9250.c ****     0x94, 0x01, 0xD9, 0xA3, 0x02, 0xF1, 0xA2, 0xC3, 0xC5, 0xC7, 0xD8, 0xF1, 0x84, 0x92, 0xA2, 0x4D,
 100:Src/mpu9250.c ****     0xDA, 0x2A, 0xD8, 0x48, 0x69, 0xD9, 0x2A, 0xD8, 0x68, 0x55, 0xDA, 0x32, 0xD8, 0x50, 0x71, 0xD9,
 101:Src/mpu9250.c ****     0x32, 0xD8, 0x70, 0x5D, 0xDA, 0x3A, 0xD8, 0x58, 0x79, 0xD9, 0x3A, 0xD8, 0x78, 0x93, 0xA3, 0x4D,
 102:Src/mpu9250.c ****     0xDA, 0x2A, 0xD8, 0x48, 0x69, 0xD9, 0x2A, 0xD8, 0x68, 0x55, 0xDA, 0x32, 0xD8, 0x50, 0x71, 0xD9,
 103:Src/mpu9250.c ****     0x32, 0xD8, 0x70, 0x5D, 0xDA, 0x3A, 0xD8, 0x58, 0x79, 0xD9, 0x3A, 0xD8, 0x78, 0xA8, 0x8A, 0x9A,
 104:Src/mpu9250.c ****     0xF0, 0x28, 0x50, 0x78, 0x9E, 0xF3, 0x88, 0x18, 0xF1, 0x9F, 0x1D, 0x98, 0xA8, 0xD9, 0x08, 0xD8,
 105:Src/mpu9250.c ****     0xC8, 0x9F, 0x12, 0x9E, 0xF3, 0x15, 0xA8, 0xDA, 0x12, 0x10, 0xD8, 0xF1, 0xAF, 0xC8, 0x97, 0x87,
 106:Src/mpu9250.c **** 
 107:Src/mpu9250.c ****     // bank 5, 256 bytes
 108:Src/mpu9250.c ****     0x34, 0xB5, 0xB9, 0x94, 0xA4, 0x21, 0xF3, 0xD9, 0x22, 0xD8, 0xF2, 0x2D, 0xF3, 0xD9, 0x2A, 0xD8,
 109:Src/mpu9250.c ****     0xF2, 0x35, 0xF3, 0xD9, 0x32, 0xD8, 0x81, 0xA4, 0x60, 0x60, 0x61, 0xD9, 0x61, 0xD8, 0x6C, 0x68,
 110:Src/mpu9250.c ****     0x69, 0xD9, 0x69, 0xD8, 0x74, 0x70, 0x71, 0xD9, 0x71, 0xD8, 0xB1, 0xA3, 0x84, 0x19, 0x3D, 0x5D,
 111:Src/mpu9250.c ****     0xA3, 0x83, 0x1A, 0x3E, 0x5E, 0x93, 0x10, 0x30, 0x81, 0x10, 0x11, 0xB8, 0xB0, 0xAF, 0x8F, 0x94,
 112:Src/mpu9250.c ****     0xF2, 0xDA, 0x3E, 0xD8, 0xB4, 0x9A, 0xA8, 0x87, 0x29, 0xDA, 0xF8, 0xD8, 0x87, 0x9A, 0x35, 0xDA,
 113:Src/mpu9250.c ****     0xF8, 0xD8, 0x87, 0x9A, 0x3D, 0xDA, 0xF8, 0xD8, 0xB1, 0xB9, 0xA4, 0x98, 0x85, 0x02, 0x2E, 0x56,
 114:Src/mpu9250.c ****     0xA5, 0x81, 0x00, 0x0C, 0x14, 0xA3, 0x97, 0xB0, 0x8A, 0xF1, 0x2D, 0xD9, 0x28, 0xD8, 0x4D, 0xD9,
 115:Src/mpu9250.c ****     0x48, 0xD8, 0x6D, 0xD9, 0x68, 0xD8, 0xB1, 0x84, 0x0D, 0xDA, 0x0E, 0xD8, 0xA3, 0x29, 0x83, 0xDA,
 116:Src/mpu9250.c ****     0x2C, 0x0E, 0xD8, 0xA3, 0x84, 0x49, 0x83, 0xDA, 0x2C, 0x4C, 0x0E, 0xD8, 0xB8, 0xB0, 0xA8, 0x8A,
 117:Src/mpu9250.c ****     0x9A, 0xF5, 0x20, 0xAA, 0xDA, 0xDF, 0xD8, 0xA8, 0x40, 0xAA, 0xD0, 0xDA, 0xDE, 0xD8, 0xA8, 0x60,
 118:Src/mpu9250.c ****     0xAA, 0xDA, 0xD0, 0xDF, 0xD8, 0xF1, 0x97, 0x86, 0xA8, 0x31, 0x9B, 0x06, 0x99, 0x07, 0xAB, 0x97,
 119:Src/mpu9250.c ****     0x28, 0x88, 0x9B, 0xF0, 0x0C, 0x20, 0x14, 0x40, 0xB8, 0xB0, 0xB4, 0xA8, 0x8C, 0x9C, 0xF0, 0x04,
 120:Src/mpu9250.c ****     0x28, 0x51, 0x79, 0x1D, 0x30, 0x14, 0x38, 0xB2, 0x82, 0xAB, 0xD0, 0x98, 0x2C, 0x50, 0x50, 0x78,
 121:Src/mpu9250.c ****     0x78, 0x9B, 0xF1, 0x1A, 0xB0, 0xF0, 0x8A, 0x9C, 0xA8, 0x29, 0x51, 0x79, 0x8B, 0x29, 0x51, 0x79,
 122:Src/mpu9250.c ****     0x8A, 0x24, 0x70, 0x59, 0x8B, 0x20, 0x58, 0x71, 0x8A, 0x44, 0x69, 0x38, 0x8B, 0x39, 0x40, 0x68,
 123:Src/mpu9250.c ****     0x8A, 0x64, 0x48, 0x31, 0x8B, 0x30, 0x49, 0x60, 0xA5, 0x88, 0x20, 0x09, 0x71, 0x58, 0x44, 0x68,
 124:Src/mpu9250.c **** 
 125:Src/mpu9250.c ****     // bank 6, 256 bytes
 126:Src/mpu9250.c ****     0x11, 0x39, 0x64, 0x49, 0x30, 0x19, 0xF1, 0xAC, 0x00, 0x2C, 0x54, 0x7C, 0xF0, 0x8C, 0xA8, 0x04,
 127:Src/mpu9250.c ****     0x28, 0x50, 0x78, 0xF1, 0x88, 0x97, 0x26, 0xA8, 0x59, 0x98, 0xAC, 0x8C, 0x02, 0x26, 0x46, 0x66,
 128:Src/mpu9250.c ****     0xF0, 0x89, 0x9C, 0xA8, 0x29, 0x51, 0x79, 0x24, 0x70, 0x59, 0x44, 0x69, 0x38, 0x64, 0x48, 0x31,
 129:Src/mpu9250.c ****     0xA9, 0x88, 0x09, 0x20, 0x59, 0x70, 0xAB, 0x11, 0x38, 0x40, 0x69, 0xA8, 0x19, 0x31, 0x48, 0x60,
 130:Src/mpu9250.c ****     0x8C, 0xA8, 0x3C, 0x41, 0x5C, 0x20, 0x7C, 0x00, 0xF1, 0x87, 0x98, 0x19, 0x86, 0xA8, 0x6E, 0x76,
 131:Src/mpu9250.c ****     0x7E, 0xA9, 0x99, 0x88, 0x2D, 0x55, 0x7D, 0x9E, 0xB9, 0xA3, 0x8A, 0x22, 0x8A, 0x6E, 0x8A, 0x56,
 132:Src/mpu9250.c ****     0x8A, 0x5E, 0x9F, 0xB1, 0x83, 0x06, 0x26, 0x46, 0x66, 0x0E, 0x2E, 0x4E, 0x6E, 0x9D, 0xB8, 0xAD,
 133:Src/mpu9250.c ****     0x00, 0x2C, 0x54, 0x7C, 0xF2, 0xB1, 0x8C, 0xB4, 0x99, 0xB9, 0xA3, 0x2D, 0x55, 0x7D, 0x81, 0x91,
 134:Src/mpu9250.c ****     0xAC, 0x38, 0xAD, 0x3A, 0xB5, 0x83, 0x91, 0xAC, 0x2D, 0xD9, 0x28, 0xD8, 0x4D, 0xD9, 0x48, 0xD8,
 135:Src/mpu9250.c ****     0x6D, 0xD9, 0x68, 0xD8, 0x8C, 0x9D, 0xAE, 0x29, 0xD9, 0x04, 0xAE, 0xD8, 0x51, 0xD9, 0x04, 0xAE,
 136:Src/mpu9250.c ****     0xD8, 0x79, 0xD9, 0x04, 0xD8, 0x81, 0xF3, 0x9D, 0xAD, 0x00, 0x8D, 0xAE, 0x19, 0x81, 0xAD, 0xD9,
 137:Src/mpu9250.c ****     0x01, 0xD8, 0xF2, 0xAE, 0xDA, 0x26, 0xD8, 0x8E, 0x91, 0x29, 0x83, 0xA7, 0xD9, 0xAD, 0xAD, 0xAD,
 138:Src/mpu9250.c ****     0xAD, 0xF3, 0x2A, 0xD8, 0xD8, 0xF1, 0xB0, 0xAC, 0x89, 0x91, 0x3E, 0x5E, 0x76, 0xF3, 0xAC, 0x2E,
 139:Src/mpu9250.c ****     0x2E, 0xF1, 0xB1, 0x8C, 0x5A, 0x9C, 0xAC, 0x2C, 0x28, 0x28, 0x28, 0x9C, 0xAC, 0x30, 0x18, 0xA8,
 140:Src/mpu9250.c ****     0x98, 0x81, 0x28, 0x34, 0x3C, 0x97, 0x24, 0xA7, 0x28, 0x34, 0x3C, 0x9C, 0x24, 0xF2, 0xB0, 0x89,
 141:Src/mpu9250.c ****     0xAC, 0x91, 0x2C, 0x4C, 0x6C, 0x8A, 0x9B, 0x2D, 0xD9, 0xD8, 0xD8, 0x51, 0xD9, 0xD8, 0xD8, 0x79,
 142:Src/mpu9250.c **** 
 143:Src/mpu9250.c ****     // bank 7, 138 bytes (remainder)
 144:Src/mpu9250.c ****     0xD9, 0xD8, 0xD8, 0xF1, 0x9E, 0x88, 0xA3, 0x31, 0xDA, 0xD8, 0xD8, 0x91, 0x2D, 0xD9, 0x28, 0xD8,
 145:Src/mpu9250.c ****     0x4D, 0xD9, 0x48, 0xD8, 0x6D, 0xD9, 0x68, 0xD8, 0xB1, 0x83, 0x93, 0x35, 0x3D, 0x80, 0x25, 0xDA,
 146:Src/mpu9250.c ****     0xD8, 0xD8, 0x85, 0x69, 0xDA, 0xD8, 0xD8, 0xB4, 0x93, 0x81, 0xA3, 0x28, 0x34, 0x3C, 0xF3, 0xAB,
 147:Src/mpu9250.c ****     0x8B, 0xF8, 0xA3, 0x91, 0xB6, 0x09, 0xB4, 0xD9, 0xAB, 0xDE, 0xFA, 0xB0, 0x87, 0x9C, 0xB9, 0xA3,
 148:Src/mpu9250.c ****     0xDD, 0xF1, 0xA3, 0xA3, 0xA3, 0xA3, 0x95, 0xF1, 0xA3, 0xA3, 0xA3, 0x9D, 0xF1, 0xA3, 0xA3, 0xA3,
ARM GAS  /tmp/ccKYPvWI.s 			page 4


 149:Src/mpu9250.c ****     0xA3, 0xF2, 0xA3, 0xB4, 0x90, 0x80, 0xF2, 0xA3, 0xA3, 0xA3, 0xA3, 0xA3, 0xA3, 0xA3, 0xA3, 0xA3,
 150:Src/mpu9250.c ****     0xA3, 0xB2, 0xA3, 0xA3, 0xA3, 0xA3, 0xA3, 0xA3, 0xB0, 0x87, 0xB5, 0x99, 0xF1, 0xA3, 0xA3, 0xA3,
 151:Src/mpu9250.c ****     0x98, 0xF1, 0xA3, 0xA3, 0xA3, 0xA3, 0x97, 0xA3, 0xA3, 0xA3, 0xA3, 0xF3, 0x9B, 0xA3, 0xA3, 0xDC,
 152:Src/mpu9250.c ****     0xB9, 0xA7, 0xF1, 0x26, 0x26, 0x26, 0xD8, 0xD8, 0xFF
 153:Src/mpu9250.c **** };
 154:Src/mpu9250.c **** 
 155:Src/mpu9250.c **** const unsigned char dmpcfgupddata[239] = {
 156:Src/mpu9250.c **** //  dmp config 
 157:Src/mpu9250.c **** //  BANK    OFFSET  LENGTH  [DATA]
 158:Src/mpu9250.c ****     0x03,   0x7B,   0x03,   0x4C, 0xCD, 0x6C,         
 159:Src/mpu9250.c ****     0x03,   0xAB,   0x03,   0x36, 0x56, 0x76,         
 160:Src/mpu9250.c ****     0x00,   0x68,   0x04,   0x02, 0xCB, 0x47, 0xA2,   
 161:Src/mpu9250.c ****     0x02,   0x18,   0x04,   0x00, 0x05, 0x8B, 0xC1,   
 162:Src/mpu9250.c ****     0x01,   0x0C,   0x04,   0x00, 0x00, 0x00, 0x00,   
 163:Src/mpu9250.c ****     0x03,   0x7F,   0x06,   0x0C, 0xC9, 0x2C, 0x97, 0x97, 0x97, 
 164:Src/mpu9250.c ****     0x03,   0x89,   0x03,   0x26, 0x46, 0x66,         
 165:Src/mpu9250.c ****     0x00,   0x6C,   0x02,   0x20, 0x00,               
 166:Src/mpu9250.c ****     0x02,   0x40,   0x04,   0x00, 0x00, 0x00, 0x00,   
 167:Src/mpu9250.c ****     0x02,   0x44,   0x04,   0x00, 0x00, 0x00, 0x00,   
 168:Src/mpu9250.c ****     0x02,   0x48,   0x04,   0x00, 0x00, 0x00, 0x00,   
 169:Src/mpu9250.c ****     0x02,   0x4C,   0x04,   0x00, 0x00, 0x00, 0x00,   
 170:Src/mpu9250.c ****     0x02,   0x50,   0x04,   0x00, 0x00, 0x00, 0x00,   
 171:Src/mpu9250.c ****     0x02,   0x54,   0x04,   0x00, 0x00, 0x00, 0x00,  
 172:Src/mpu9250.c ****     0x02,   0x58,   0x04,   0x00, 0x00, 0x00, 0x00,  
 173:Src/mpu9250.c ****     0x02,   0x5C,   0x04,   0x00, 0x00, 0x00, 0x00,  
 174:Src/mpu9250.c ****     0x02,   0xBC,   0x04,   0x00, 0x00, 0x00, 0x00,   
 175:Src/mpu9250.c ****     0x01,   0xEC,   0x04,   0x00, 0x00, 0x40, 0x00,  
 176:Src/mpu9250.c ****     0x03,   0x7F,   0x06,   0x0C, 0xC9, 0x2C, 0x97, 0x97, 0x97,
 177:Src/mpu9250.c ****     0x04,   0x02,   0x03,   0x0D, 0x35, 0x5D,         
 178:Src/mpu9250.c ****     0x04,   0x09,   0x04,   0x87, 0x2D, 0x35, 0x3D,   
 179:Src/mpu9250.c ****     0x00,   0xA3,   0x01,   0x00,                    
 180:Src/mpu9250.c ****     0x00,   0x00,   0x01,   0x01, 
 181:Src/mpu9250.c ****     //?????????
 182:Src/mpu9250.c ****     //0x00,   0x00,   0x00,   0x01,  ?LENGTH=0x00,??
 183:Src/mpu9250.c ****         
 184:Src/mpu9250.c ****     0x07,   0x86,   0x01,   0xFE,                     
 185:Src/mpu9250.c ****     0x07,   0x41,   0x05,   0xF1, 0x20, 0x28, 0x30, 0x38, 
 186:Src/mpu9250.c ****     0x07,   0x7E,   0x01,   0x30,                   
 187:Src/mpu9250.c ****     0x07,   0x46,   0x01,   0x9A,                    
 188:Src/mpu9250.c ****     0x07,   0x47,   0x04,   0xF1, 0x28, 0x30, 0x38,   
 189:Src/mpu9250.c ****     0x07,   0x6C,   0x04,   0xF1, 0x28, 0x30, 0x38,  
 190:Src/mpu9250.c ****     0x02,   0x16,   0x02,   0x00, 0x00,              
 191:Src/mpu9250.c **** // FIFO rate :0x00=200HZ,0x01=100HZ,0x02=66HZ,0x03=50HZ ,0x04=40HZ,0x05=33.33HZ, 
 192:Src/mpu9250.c **** 
 193:Src/mpu9250.c **** //dmp updates
 194:Src/mpu9250.c ****     0x01,   0xB2,   0x02,   0xFF, 0xFF,
 195:Src/mpu9250.c ****     0x01,   0x90,   0x04,   0x09, 0x23, 0xA1, 0x35,
 196:Src/mpu9250.c ****     0x01,   0x6A,   0x02,   0x06, 0x00,
 197:Src/mpu9250.c ****     0x01,   0x60,   0x08,   0x00, 0x00, 0x00, 0x00, 0x00, 0x00, 0x00, 0x00,
 198:Src/mpu9250.c ****     0x00,   0x60,   0x04,   0x40, 0x00, 0x00, 0x00,
 199:Src/mpu9250.c ****     0x01,   0x62,   0x02,   0x00, 0x00,
 200:Src/mpu9250.c ****     0x00,   0x60,   0x04,   0x00, 0x40, 0x00, 0x00
 201:Src/mpu9250.c **** };
 202:Src/mpu9250.c **** 
 203:Src/mpu9250.c **** static HAL_StatusTypeDef IICwriteByte(uint16_t DevAddress,uint16_t MemAddress , uint8_t value)
 204:Src/mpu9250.c **** {
 205:Src/mpu9250.c **** 	HAL_StatusTypeDef ret = HAL_OK;
ARM GAS  /tmp/ccKYPvWI.s 			page 5


 206:Src/mpu9250.c **** 	ret = HAL_I2C_Mem_Write(&hi2c1, DevAddress, MemAddress,I2C_MEMADD_SIZE_8BIT, &value, 1, 1000);
 207:Src/mpu9250.c **** 	return ret;
 208:Src/mpu9250.c **** }
 209:Src/mpu9250.c **** 
 210:Src/mpu9250.c **** static HAL_StatusTypeDef IICreadBytes(uint16_t DevAddress,uint16_t MemAddress ,uint16_t Size, uint8
 211:Src/mpu9250.c **** {
  25              		.loc 1 211 0
  26              		.cfi_startproc
  27              		@ args = 0, pretend = 0, frame = 0
  28              		@ frame_needed = 0, uses_anonymous_args = 0
  29              	.LVL0:
  30 0000 10B5     		push	{r4, lr}
  31              	.LCFI0:
  32              		.cfi_def_cfa_offset 8
  33              		.cfi_offset 4, -8
  34              		.cfi_offset 14, -4
  35 0002 84B0     		sub	sp, sp, #16
  36              	.LCFI1:
  37              		.cfi_def_cfa_offset 24
 212:Src/mpu9250.c **** 	return HAL_I2C_Mem_Read(&hi2c1, DevAddress, MemAddress,I2C_MEMADD_SIZE_8BIT, pData, Size, 1000);
  38              		.loc 1 212 0
  39 0004 4FF47A74 		mov	r4, #1000
  40 0008 0294     		str	r4, [sp, #8]
  41 000a 0192     		str	r2, [sp, #4]
  42 000c 0093     		str	r3, [sp]
  43 000e 0123     		movs	r3, #1
  44              	.LVL1:
  45 0010 0A46     		mov	r2, r1
  46              	.LVL2:
  47 0012 0146     		mov	r1, r0
  48              	.LVL3:
  49 0014 0248     		ldr	r0, .L3
  50              	.LVL4:
  51 0016 FFF7FEFF 		bl	HAL_I2C_Mem_Read
  52              	.LVL5:
 213:Src/mpu9250.c **** }
  53              		.loc 1 213 0
  54 001a 04B0     		add	sp, sp, #16
  55              	.LCFI2:
  56              		.cfi_def_cfa_offset 8
  57              		@ sp needed
  58 001c 10BD     		pop	{r4, pc}
  59              	.L4:
  60 001e 00BF     		.align	2
  61              	.L3:
  62 0020 00000000 		.word	hi2c1
  63              		.cfi_endproc
  64              	.LFE65:
  66              		.section	.text.IIC_ReadOneByte,"ax",%progbits
  67              		.align	1
  68              		.syntax unified
  69              		.thumb
  70              		.thumb_func
  71              		.fpu softvfp
  73              	IIC_ReadOneByte:
  74              	.LFB66:
 214:Src/mpu9250.c **** 
ARM GAS  /tmp/ccKYPvWI.s 			page 6


 215:Src/mpu9250.c **** static uint8_t IIC_ReadOneByte(uint16_t DevAddress,uint16_t MemAddress)
 216:Src/mpu9250.c **** {
  75              		.loc 1 216 0
  76              		.cfi_startproc
  77              		@ args = 0, pretend = 0, frame = 8
  78              		@ frame_needed = 0, uses_anonymous_args = 0
  79              	.LVL6:
  80 0000 00B5     		push	{lr}
  81              	.LCFI3:
  82              		.cfi_def_cfa_offset 4
  83              		.cfi_offset 14, -4
  84 0002 87B0     		sub	sp, sp, #28
  85              	.LCFI4:
  86              		.cfi_def_cfa_offset 32
 217:Src/mpu9250.c **** 	uint8_t value;
 218:Src/mpu9250.c **** 	HAL_I2C_Mem_Read(&hi2c1, DevAddress, MemAddress,I2C_MEMADD_SIZE_8BIT, &value, 1, 1000);
  87              		.loc 1 218 0
  88 0004 4FF47A73 		mov	r3, #1000
  89 0008 0293     		str	r3, [sp, #8]
  90 000a 0123     		movs	r3, #1
  91 000c 0193     		str	r3, [sp, #4]
  92 000e 0DF11702 		add	r2, sp, #23
  93 0012 0092     		str	r2, [sp]
  94 0014 0A46     		mov	r2, r1
  95 0016 0146     		mov	r1, r0
  96              	.LVL7:
  97 0018 0348     		ldr	r0, .L7
  98              	.LVL8:
  99 001a FFF7FEFF 		bl	HAL_I2C_Mem_Read
 100              	.LVL9:
 219:Src/mpu9250.c **** 	return value;
 220:Src/mpu9250.c **** }
 101              		.loc 1 220 0
 102 001e 9DF81700 		ldrb	r0, [sp, #23]	@ zero_extendqisi2
 103 0022 07B0     		add	sp, sp, #28
 104              	.LCFI5:
 105              		.cfi_def_cfa_offset 4
 106              		@ sp needed
 107 0024 5DF804FB 		ldr	pc, [sp], #4
 108              	.L8:
 109              		.align	2
 110              	.L7:
 111 0028 00000000 		.word	hi2c1
 112              		.cfi_endproc
 113              	.LFE66:
 115              		.section	.text.IICwriteByte,"ax",%progbits
 116              		.align	1
 117              		.syntax unified
 118              		.thumb
 119              		.thumb_func
 120              		.fpu softvfp
 122              	IICwriteByte:
 123              	.LFB64:
 204:Src/mpu9250.c **** 	HAL_StatusTypeDef ret = HAL_OK;
 124              		.loc 1 204 0
 125              		.cfi_startproc
 126              		@ args = 0, pretend = 0, frame = 8
ARM GAS  /tmp/ccKYPvWI.s 			page 7


 127              		@ frame_needed = 0, uses_anonymous_args = 0
 128              	.LVL10:
 129 0000 10B5     		push	{r4, lr}
 130              	.LCFI6:
 131              		.cfi_def_cfa_offset 8
 132              		.cfi_offset 4, -8
 133              		.cfi_offset 14, -4
 134 0002 86B0     		sub	sp, sp, #24
 135              	.LCFI7:
 136              		.cfi_def_cfa_offset 32
 137 0004 06AC     		add	r4, sp, #24
 138 0006 04F8012D 		strb	r2, [r4, #-1]!
 139              	.LVL11:
 206:Src/mpu9250.c **** 	return ret;
 140              		.loc 1 206 0
 141 000a 4FF47A73 		mov	r3, #1000
 142 000e 0293     		str	r3, [sp, #8]
 143 0010 0123     		movs	r3, #1
 144 0012 0193     		str	r3, [sp, #4]
 145 0014 0094     		str	r4, [sp]
 146 0016 0A46     		mov	r2, r1
 147              	.LVL12:
 148 0018 0146     		mov	r1, r0
 149              	.LVL13:
 150 001a 0248     		ldr	r0, .L11
 151              	.LVL14:
 152 001c FFF7FEFF 		bl	HAL_I2C_Mem_Write
 153              	.LVL15:
 208:Src/mpu9250.c **** 
 154              		.loc 1 208 0
 155 0020 06B0     		add	sp, sp, #24
 156              	.LCFI8:
 157              		.cfi_def_cfa_offset 8
 158              		@ sp needed
 159 0022 10BD     		pop	{r4, pc}
 160              	.L12:
 161              		.align	2
 162              	.L11:
 163 0024 00000000 		.word	hi2c1
 164              		.cfi_endproc
 165              	.LFE64:
 167              		.section	.text.IICwriteBit,"ax",%progbits
 168              		.align	1
 169              		.syntax unified
 170              		.thumb
 171              		.thumb_func
 172              		.fpu softvfp
 174              	IICwriteBit:
 175              	.LFB67:
 221:Src/mpu9250.c **** 
 222:Src/mpu9250.c **** static HAL_StatusTypeDef IICwriteBit(uint16_t DevAddress,uint16_t MemAddress,uint8_t bit,uint8_t Bi
 223:Src/mpu9250.c **** {
 176              		.loc 1 223 0
 177              		.cfi_startproc
 178              		@ args = 0, pretend = 0, frame = 8
 179              		@ frame_needed = 0, uses_anonymous_args = 0
 180              	.LVL16:
ARM GAS  /tmp/ccKYPvWI.s 			page 8


 181 0000 F0B5     		push	{r4, r5, r6, r7, lr}
 182              	.LCFI9:
 183              		.cfi_def_cfa_offset 20
 184              		.cfi_offset 4, -20
 185              		.cfi_offset 5, -16
 186              		.cfi_offset 6, -12
 187              		.cfi_offset 7, -8
 188              		.cfi_offset 14, -4
 189 0002 87B0     		sub	sp, sp, #28
 190              	.LCFI10:
 191              		.cfi_def_cfa_offset 48
 192 0004 0446     		mov	r4, r0
 193 0006 0D46     		mov	r5, r1
 194 0008 1646     		mov	r6, r2
 195 000a 1F46     		mov	r7, r3
 196              	.LVL17:
 224:Src/mpu9250.c **** 	uint8_t value;
 225:Src/mpu9250.c **** 	HAL_StatusTypeDef ret = HAL_OK;
 226:Src/mpu9250.c **** 
 227:Src/mpu9250.c **** 	ret = HAL_I2C_Mem_Read(&hi2c1 , DevAddress, MemAddress, I2C_MEMADD_SIZE_8BIT,&value, 1, 1000);
 197              		.loc 1 227 0
 198 000c 4FF47A73 		mov	r3, #1000
 199              	.LVL18:
 200 0010 0293     		str	r3, [sp, #8]
 201 0012 0123     		movs	r3, #1
 202 0014 0193     		str	r3, [sp, #4]
 203 0016 0DF11702 		add	r2, sp, #23
 204              	.LVL19:
 205 001a 0092     		str	r2, [sp]
 206 001c 0A46     		mov	r2, r1
 207 001e 0146     		mov	r1, r0
 208              	.LVL20:
 209 0020 1248     		ldr	r0, .L19
 210              	.LVL21:
 211 0022 FFF7FEFF 		bl	HAL_I2C_Mem_Read
 212              	.LVL22:
 228:Src/mpu9250.c **** 	if(ret == HAL_OK)
 213              		.loc 1 228 0
 214 0026 F0B9     		cbnz	r0, .L17
 229:Src/mpu9250.c **** 	{
 230:Src/mpu9250.c **** 		if(0 == BitVal)
 215              		.loc 1 230 0
 216 0028 AFB9     		cbnz	r7, .L15
 231:Src/mpu9250.c **** 		{
 232:Src/mpu9250.c **** 			value = value & (0xfe << bit);
 217              		.loc 1 232 0
 218 002a FE23     		movs	r3, #254
 219 002c B340     		lsls	r3, r3, r6
 220 002e 9DF81760 		ldrb	r6, [sp, #23]	@ zero_extendqisi2
 221 0032 1E40     		ands	r6, r6, r3
 222 0034 8DF81760 		strb	r6, [sp, #23]
 223              	.L16:
 233:Src/mpu9250.c **** 		}
 234:Src/mpu9250.c **** 		else
 235:Src/mpu9250.c **** 		{
 236:Src/mpu9250.c **** 			value = value | (0x01 << bit);
 237:Src/mpu9250.c **** 		}
ARM GAS  /tmp/ccKYPvWI.s 			page 9


 238:Src/mpu9250.c **** 		ret = HAL_I2C_Mem_Write(&hi2c1, DevAddress, MemAddress, I2C_MEMADD_SIZE_8BIT,&value, 1, 1000);
 224              		.loc 1 238 0
 225 0038 4FF47A73 		mov	r3, #1000
 226 003c 0293     		str	r3, [sp, #8]
 227 003e 0123     		movs	r3, #1
 228 0040 0193     		str	r3, [sp, #4]
 229 0042 0DF11702 		add	r2, sp, #23
 230 0046 0092     		str	r2, [sp]
 231 0048 2A46     		mov	r2, r5
 232 004a 2146     		mov	r1, r4
 233 004c 0748     		ldr	r0, .L19
 234              	.LVL23:
 235 004e FFF7FEFF 		bl	HAL_I2C_Mem_Write
 236              	.LVL24:
 237              	.L14:
 239:Src/mpu9250.c **** 		return ret;
 240:Src/mpu9250.c **** 	}
 241:Src/mpu9250.c **** 	return HAL_ERROR;
 242:Src/mpu9250.c **** }
 238              		.loc 1 242 0
 239 0052 07B0     		add	sp, sp, #28
 240              	.LCFI11:
 241              		.cfi_remember_state
 242              		.cfi_def_cfa_offset 20
 243              		@ sp needed
 244 0054 F0BD     		pop	{r4, r5, r6, r7, pc}
 245              	.LVL25:
 246              	.L15:
 247              	.LCFI12:
 248              		.cfi_restore_state
 236:Src/mpu9250.c **** 		}
 249              		.loc 1 236 0
 250 0056 0123     		movs	r3, #1
 251 0058 B340     		lsls	r3, r3, r6
 252 005a 9DF81760 		ldrb	r6, [sp, #23]	@ zero_extendqisi2
 253 005e 1E43     		orrs	r6, r6, r3
 254 0060 8DF81760 		strb	r6, [sp, #23]
 255 0064 E8E7     		b	.L16
 256              	.L17:
 241:Src/mpu9250.c **** }
 257              		.loc 1 241 0
 258 0066 0120     		movs	r0, #1
 259              	.LVL26:
 260 0068 F3E7     		b	.L14
 261              	.L20:
 262 006a 00BF     		.align	2
 263              	.L19:
 264 006c 00000000 		.word	hi2c1
 265              		.cfi_endproc
 266              	.LFE67:
 268              		.section	.text.Delayms,"ax",%progbits
 269              		.align	1
 270              		.global	Delayms
 271              		.syntax unified
 272              		.thumb
 273              		.thumb_func
 274              		.fpu softvfp
ARM GAS  /tmp/ccKYPvWI.s 			page 10


 276              	Delayms:
 277              	.LFB68:
 243:Src/mpu9250.c **** 
 244:Src/mpu9250.c **** 
 245:Src/mpu9250.c **** 
 246:Src/mpu9250.c **** void Delayms(uint32_t m)
 247:Src/mpu9250.c **** {
 278              		.loc 1 247 0
 279              		.cfi_startproc
 280              		@ args = 0, pretend = 0, frame = 0
 281              		@ frame_needed = 0, uses_anonymous_args = 0
 282              		@ link register save eliminated.
 283              	.LVL27:
 248:Src/mpu9250.c ****   uint32_t i;
 249:Src/mpu9250.c ****   for(; m != 0; m--)	
 284              		.loc 1 249 0
 285 0000 05E0     		b	.L22
 286              	.LVL28:
 287              	.L23:
 250:Src/mpu9250.c ****        for (i=0; i<6666; i++);
 288              		.loc 1 250 0 discriminator 3
 289 0002 0133     		adds	r3, r3, #1
 290              	.LVL29:
 291              	.L24:
 292              		.loc 1 250 0 is_stmt 0 discriminator 1
 293 0004 41F60922 		movw	r2, #6665
 294 0008 9342     		cmp	r3, r2
 295 000a FAD9     		bls	.L23
 249:Src/mpu9250.c ****        for (i=0; i<6666; i++);
 296              		.loc 1 249 0 is_stmt 1
 297 000c 0138     		subs	r0, r0, #1
 298              	.LVL30:
 299              	.L22:
 249:Src/mpu9250.c ****        for (i=0; i<6666; i++);
 300              		.loc 1 249 0 is_stmt 0 discriminator 1
 301 000e 08B1     		cbz	r0, .L26
 302 0010 0023     		movs	r3, #0
 303 0012 F7E7     		b	.L24
 304              	.L26:
 251:Src/mpu9250.c **** }
 305              		.loc 1 251 0 is_stmt 1
 306 0014 7047     		bx	lr
 307              		.cfi_endproc
 308              	.LFE68:
 310              		.section	.text.readdmp,"ax",%progbits
 311              		.align	1
 312              		.global	readdmp
 313              		.syntax unified
 314              		.thumb
 315              		.thumb_func
 316              		.fpu softvfp
 318              	readdmp:
 319              	.LFB69:
 252:Src/mpu9250.c **** 
 253:Src/mpu9250.c **** //ÁíáËØ≤ÂΩáDMP FIFO Èê®Âã´ÔøΩÁ°∑Á¥ùÊ∑áÊøÜÁì®Èç¶‚ï†mpdatas ÈèÅÊâÆÁ≤çÊ∂ìÔøΩ
 254:Src/mpu9250.c **** void readdmp(void)
 255:Src/mpu9250.c **** {
ARM GAS  /tmp/ccKYPvWI.s 			page 11


 320              		.loc 1 255 0
 321              		.cfi_startproc
 322              		@ args = 0, pretend = 0, frame = 0
 323              		@ frame_needed = 0, uses_anonymous_args = 0
 324 0000 08B5     		push	{r3, lr}
 325              	.LCFI13:
 326              		.cfi_def_cfa_offset 8
 327              		.cfi_offset 3, -8
 328              		.cfi_offset 14, -4
 256:Src/mpu9250.c **** 	IICreadBytes(GYRO_ADDRESS,0x74,42,dmpdatas);
 329              		.loc 1 256 0
 330 0002 064B     		ldr	r3, .L29
 331 0004 2A22     		movs	r2, #42
 332 0006 7421     		movs	r1, #116
 333 0008 D020     		movs	r0, #208
 334 000a FFF7FEFF 		bl	IICreadBytes
 335              	.LVL31:
 257:Src/mpu9250.c ****   IICwriteByte(GYRO_ADDRESS,MPU9250_RA_USER_CTRL , 0xcc);//FIFO_RST | DMP_RST | DMP_EN | FIFO_EN 
 336              		.loc 1 257 0
 337 000e CC22     		movs	r2, #204
 338 0010 6A21     		movs	r1, #106
 339 0012 D020     		movs	r0, #208
 340 0014 FFF7FEFF 		bl	IICwriteByte
 341              	.LVL32:
 342 0018 08BD     		pop	{r3, pc}
 343              	.L30:
 344 001a 00BF     		.align	2
 345              	.L29:
 346 001c 00000000 		.word	dmpdatas
 347              		.cfi_endproc
 348              	.LFE69:
 350              		.section	.text.getdmplong,"ax",%progbits
 351              		.align	1
 352              		.global	getdmplong
 353              		.syntax unified
 354              		.thumb
 355              		.thumb_func
 356              		.fpu softvfp
 358              	getdmplong:
 359              	.LFB70:
 258:Src/mpu9250.c **** }
 259:Src/mpu9250.c **** 
 260:Src/mpu9250.c **** long getdmplong(unsigned char address)
 261:Src/mpu9250.c **** {
 360              		.loc 1 261 0
 361              		.cfi_startproc
 362              		@ args = 0, pretend = 0, frame = 0
 363              		@ frame_needed = 0, uses_anonymous_args = 0
 364              		@ link register save eliminated.
 365              	.LVL33:
 262:Src/mpu9250.c ****   long dmptempl;
 263:Src/mpu9250.c ****   dmptempl = dmpdatas[address];
 366              		.loc 1 263 0
 367 0000 074B     		ldr	r3, .L32
 368 0002 195C     		ldrb	r1, [r3, r0]	@ zero_extendqisi2
 369              	.LVL34:
 264:Src/mpu9250.c ****   dmptempl <<= 8;
ARM GAS  /tmp/ccKYPvWI.s 			page 12


 265:Src/mpu9250.c ****   dmptempl |= dmpdatas[address+1];
 370              		.loc 1 265 0
 371 0004 421C     		adds	r2, r0, #1
 372 0006 9A5C     		ldrb	r2, [r3, r2]	@ zero_extendqisi2
 373 0008 42EA0121 		orr	r1, r2, r1, lsl #8
 374              	.LVL35:
 266:Src/mpu9250.c ****   dmptempl <<= 8;
 267:Src/mpu9250.c ****   dmptempl |= dmpdatas[address+2];
 375              		.loc 1 267 0
 376 000c 821C     		adds	r2, r0, #2
 377 000e 9A5C     		ldrb	r2, [r3, r2]	@ zero_extendqisi2
 378 0010 42EA0122 		orr	r2, r2, r1, lsl #8
 379              	.LVL36:
 268:Src/mpu9250.c ****   dmptempl <<= 8;
 269:Src/mpu9250.c ****   dmptempl |= dmpdatas[address+3];
 380              		.loc 1 269 0
 381 0014 0330     		adds	r0, r0, #3
 382              	.LVL37:
 383 0016 185C     		ldrb	r0, [r3, r0]	@ zero_extendqisi2
 384              	.LVL38:
 270:Src/mpu9250.c ****   return dmptempl;
 271:Src/mpu9250.c **** }
 385              		.loc 1 271 0
 386 0018 40EA0220 		orr	r0, r0, r2, lsl #8
 387              	.LVL39:
 388 001c 7047     		bx	lr
 389              	.L33:
 390 001e 00BF     		.align	2
 391              	.L32:
 392 0020 00000000 		.word	dmpdatas
 393              		.cfi_endproc
 394              	.LFE70:
 396              		.global	__aeabi_i2d
 397              		.global	__aeabi_dmul
 398              		.global	__aeabi_d2f
 399              		.section	.text.getquaternion,"ax",%progbits
 400              		.align	1
 401              		.global	getquaternion
 402              		.syntax unified
 403              		.thumb
 404              		.thumb_func
 405              		.fpu softvfp
 407              	getquaternion:
 408              	.LFB71:
 272:Src/mpu9250.c **** 
 273:Src/mpu9250.c **** // **********************************************************************
 274:Src/mpu9250.c **** // ÈèçËßÑÂµÅFIFOÊ∂ìÓÖ†ÊÆëÈçäËâ∞ÓÖ∏Áª†Ê•ÄÊ¥ìÈçèÂÜ©ÊöüÈîõÂ≤ÉÓÖ∏Áª†Ê¢±aw,pitch,roll  ÁíÅÔºÑÁïªÈçîÁäªÔø
 275:Src/mpu9250.c **** // **********************************************************************
 276:Src/mpu9250.c **** 
 277:Src/mpu9250.c **** //ÁíÅÔºÑÁïªÈç•Ê∂òÂéìÈèÅÔøΩ
 278:Src/mpu9250.c **** void getquaternion(void)
 279:Src/mpu9250.c **** {    
 409              		.loc 1 279 0
 410              		.cfi_startproc
 411              		@ args = 0, pretend = 0, frame = 0
 412              		@ frame_needed = 0, uses_anonymous_args = 0
 413 0000 10B5     		push	{r4, lr}
ARM GAS  /tmp/ccKYPvWI.s 			page 13


 414              	.LCFI14:
 415              		.cfi_def_cfa_offset 8
 416              		.cfi_offset 4, -8
 417              		.cfi_offset 14, -4
 280:Src/mpu9250.c ****   q[0] = getdmplong(0)/1073741824.0;  
 418              		.loc 1 280 0
 419 0002 0020     		movs	r0, #0
 420 0004 FFF7FEFF 		bl	getdmplong
 421              	.LVL40:
 422 0008 FFF7FEFF 		bl	__aeabi_i2d
 423              	.LVL41:
 424 000c 0022     		movs	r2, #0
 425 000e 164B     		ldr	r3, .L36
 426 0010 FFF7FEFF 		bl	__aeabi_dmul
 427              	.LVL42:
 428 0014 FFF7FEFF 		bl	__aeabi_d2f
 429              	.LVL43:
 430 0018 144C     		ldr	r4, .L36+4
 431 001a 2060     		str	r0, [r4]	@ float
 281:Src/mpu9250.c ****   q[1] = getdmplong(4)/1073741824.0;
 432              		.loc 1 281 0
 433 001c 0420     		movs	r0, #4
 434 001e FFF7FEFF 		bl	getdmplong
 435              	.LVL44:
 436 0022 FFF7FEFF 		bl	__aeabi_i2d
 437              	.LVL45:
 438 0026 0022     		movs	r2, #0
 439 0028 0F4B     		ldr	r3, .L36
 440 002a FFF7FEFF 		bl	__aeabi_dmul
 441              	.LVL46:
 442 002e FFF7FEFF 		bl	__aeabi_d2f
 443              	.LVL47:
 444 0032 6060     		str	r0, [r4, #4]	@ float
 282:Src/mpu9250.c ****   q[2] = getdmplong(8)/1073741824.0;
 445              		.loc 1 282 0
 446 0034 0820     		movs	r0, #8
 447 0036 FFF7FEFF 		bl	getdmplong
 448              	.LVL48:
 449 003a FFF7FEFF 		bl	__aeabi_i2d
 450              	.LVL49:
 451 003e 0022     		movs	r2, #0
 452 0040 094B     		ldr	r3, .L36
 453 0042 FFF7FEFF 		bl	__aeabi_dmul
 454              	.LVL50:
 455 0046 FFF7FEFF 		bl	__aeabi_d2f
 456              	.LVL51:
 457 004a A060     		str	r0, [r4, #8]	@ float
 283:Src/mpu9250.c ****   q[3] = getdmplong(12)/1073741824.0;
 458              		.loc 1 283 0
 459 004c 0C20     		movs	r0, #12
 460 004e FFF7FEFF 		bl	getdmplong
 461              	.LVL52:
 462 0052 FFF7FEFF 		bl	__aeabi_i2d
 463              	.LVL53:
 464 0056 0022     		movs	r2, #0
 465 0058 034B     		ldr	r3, .L36
 466 005a FFF7FEFF 		bl	__aeabi_dmul
ARM GAS  /tmp/ccKYPvWI.s 			page 14


 467              	.LVL54:
 468 005e FFF7FEFF 		bl	__aeabi_d2f
 469              	.LVL55:
 470 0062 E060     		str	r0, [r4, #12]	@ float
 471 0064 10BD     		pop	{r4, pc}
 472              	.L37:
 473 0066 00BF     		.align	2
 474              	.L36:
 475 0068 0000103E 		.word	1041235968
 476 006c 00000000 		.word	q
 477              		.cfi_endproc
 478              	.LFE71:
 480              		.global	__aeabi_fmul
 481              		.global	__aeabi_fadd
 482              		.global	__aeabi_f2d
 483              		.global	__aeabi_dadd
 484              		.global	__aeabi_dsub
 485              		.global	__aeabi_fsub
 486              		.section	.text.getyawpitchroll,"ax",%progbits
 487              		.align	1
 488              		.global	getyawpitchroll
 489              		.syntax unified
 490              		.thumb
 491              		.thumb_func
 492              		.fpu softvfp
 494              	getyawpitchroll:
 495              	.LFB72:
 284:Src/mpu9250.c **** }
 285:Src/mpu9250.c **** 
 286:Src/mpu9250.c **** //ÁíÅÔºÑÁïªyawÈäÜ‰π∏itchÈäÜ‰π∫oll(ÈçëËä•ÊöüÊ∂ìÓÖûÂØòÈçöÓÇ°Á∞°Èç•Ê∂òÂéìÈèÅÂ∏ÆÁ¥ùÈèÉÁäªÊ∏∂ÈçêÂ∂àÁöüÈê
 287:Src/mpu9250.c **** void getyawpitchroll(void)
 288:Src/mpu9250.c **** {
 496              		.loc 1 288 0
 497              		.cfi_startproc
 498              		@ args = 0, pretend = 0, frame = 0
 499              		@ frame_needed = 0, uses_anonymous_args = 0
 500 0000 2DE9F843 		push	{r3, r4, r5, r6, r7, r8, r9, lr}
 501              	.LCFI15:
 502              		.cfi_def_cfa_offset 32
 503              		.cfi_offset 3, -32
 504              		.cfi_offset 4, -28
 505              		.cfi_offset 5, -24
 506              		.cfi_offset 6, -20
 507              		.cfi_offset 7, -16
 508              		.cfi_offset 8, -12
 509              		.cfi_offset 9, -8
 510              		.cfi_offset 14, -4
 289:Src/mpu9250.c **** 	getquaternion();//ÁíÅÔºÑÁïªÈç•Ê∂òÂéìÈèÅÔøΩ
 511              		.loc 1 289 0
 512 0004 FFF7FEFF 		bl	getquaternion
 513              	.LVL56:
 290:Src/mpu9250.c ****  
 291:Src/mpu9250.c **** 	yprf[0]=-atan2((2.0*(q[0]*q[3] + q[1]*q[2])),
 514              		.loc 1 291 0
 515 0008 554C     		ldr	r4, .L40+8
 516 000a E568     		ldr	r5, [r4, #12]	@ float
 517 000c 2946     		mov	r1, r5
ARM GAS  /tmp/ccKYPvWI.s 			page 15


 518 000e 2068     		ldr	r0, [r4]	@ float
 519 0010 FFF7FEFF 		bl	__aeabi_fmul
 520              	.LVL57:
 521 0014 0746     		mov	r7, r0
 522 0016 A668     		ldr	r6, [r4, #8]	@ float
 523 0018 3146     		mov	r1, r6
 524 001a 6068     		ldr	r0, [r4, #4]	@ float
 525 001c FFF7FEFF 		bl	__aeabi_fmul
 526              	.LVL58:
 527 0020 0146     		mov	r1, r0
 528 0022 3846     		mov	r0, r7
 529 0024 FFF7FEFF 		bl	__aeabi_fadd
 530              	.LVL59:
 531 0028 FFF7FEFF 		bl	__aeabi_f2d
 532              	.LVL60:
 533 002c 8046     		mov	r8, r0
 534 002e 8946     		mov	r9, r1
 292:Src/mpu9250.c **** 	                     (1 - 2.0*(q[2]*q[2] + q[3]*q[3])))*57.3;  //yaw
 535              		.loc 1 292 0
 536 0030 3146     		mov	r1, r6
 537 0032 3046     		mov	r0, r6
 538 0034 FFF7FEFF 		bl	__aeabi_fmul
 539              	.LVL61:
 540 0038 0646     		mov	r6, r0
 541 003a 2946     		mov	r1, r5
 542 003c 2846     		mov	r0, r5
 543 003e FFF7FEFF 		bl	__aeabi_fmul
 544              	.LVL62:
 545 0042 0146     		mov	r1, r0
 546 0044 3046     		mov	r0, r6
 547 0046 FFF7FEFF 		bl	__aeabi_fadd
 548              	.LVL63:
 549 004a FFF7FEFF 		bl	__aeabi_f2d
 550              	.LVL64:
 551 004e 0246     		mov	r2, r0
 552 0050 0B46     		mov	r3, r1
 553 0052 FFF7FEFF 		bl	__aeabi_dadd
 554              	.LVL65:
 291:Src/mpu9250.c **** 	                     (1 - 2.0*(q[2]*q[2] + q[3]*q[3])))*57.3;  //yaw
 555              		.loc 1 291 0
 556 0056 0246     		mov	r2, r0
 557 0058 0B46     		mov	r3, r1
 558 005a 0020     		movs	r0, #0
 559 005c 4149     		ldr	r1, .L40+12
 560 005e FFF7FEFF 		bl	__aeabi_dsub
 561              	.LVL66:
 562 0062 0646     		mov	r6, r0
 563 0064 0F46     		mov	r7, r1
 564 0066 4246     		mov	r2, r8
 565 0068 4B46     		mov	r3, r9
 566 006a 4046     		mov	r0, r8
 567 006c 4946     		mov	r1, r9
 568 006e FFF7FEFF 		bl	__aeabi_dadd
 569              	.LVL67:
 570 0072 3246     		mov	r2, r6
 571 0074 3B46     		mov	r3, r7
 572 0076 FFF7FEFF 		bl	atan2
ARM GAS  /tmp/ccKYPvWI.s 			page 16


 573              	.LVL68:
 574              		.loc 1 292 0
 575 007a 37A3     		adr	r3, .L40
 576 007c D3E90023 		ldrd	r2, [r3]
 577 0080 01F10047 		add	r7, r1, #-2147483648
 578 0084 3946     		mov	r1, r7
 579 0086 FFF7FEFF 		bl	__aeabi_dmul
 580              	.LVL69:
 581 008a FFF7FEFF 		bl	__aeabi_d2f
 582              	.LVL70:
 291:Src/mpu9250.c **** 	                     (1 - 2.0*(q[2]*q[2] + q[3]*q[3])))*57.3;  //yaw
 583              		.loc 1 291 0
 584 008e 364D     		ldr	r5, .L40+16
 585 0090 2860     		str	r0, [r5]	@ float
 293:Src/mpu9250.c **** 	
 294:Src/mpu9250.c **** 	yprf[1]=-asin((2.0*(q[0]*q[2] - q[3]*q[1])))*57.3;						//pitch
 586              		.loc 1 294 0
 587 0092 A168     		ldr	r1, [r4, #8]	@ float
 588 0094 2068     		ldr	r0, [r4]	@ float
 589 0096 FFF7FEFF 		bl	__aeabi_fmul
 590              	.LVL71:
 591 009a 0646     		mov	r6, r0
 592 009c 6168     		ldr	r1, [r4, #4]	@ float
 593 009e E068     		ldr	r0, [r4, #12]	@ float
 594 00a0 FFF7FEFF 		bl	__aeabi_fmul
 595              	.LVL72:
 596 00a4 0146     		mov	r1, r0
 597 00a6 3046     		mov	r0, r6
 598 00a8 FFF7FEFF 		bl	__aeabi_fsub
 599              	.LVL73:
 600 00ac FFF7FEFF 		bl	__aeabi_f2d
 601              	.LVL74:
 602 00b0 0246     		mov	r2, r0
 603 00b2 0B46     		mov	r3, r1
 604 00b4 FFF7FEFF 		bl	__aeabi_dadd
 605              	.LVL75:
 606 00b8 FFF7FEFF 		bl	asin
 607              	.LVL76:
 608 00bc 26A3     		adr	r3, .L40
 609 00be D3E90023 		ldrd	r2, [r3]
 610 00c2 01F10047 		add	r7, r1, #-2147483648
 611 00c6 3946     		mov	r1, r7
 612 00c8 FFF7FEFF 		bl	__aeabi_dmul
 613              	.LVL77:
 614 00cc FFF7FEFF 		bl	__aeabi_d2f
 615              	.LVL78:
 616 00d0 6860     		str	r0, [r5, #4]	@ float
 295:Src/mpu9250.c **** 
 296:Src/mpu9250.c **** 	yprf[2] = atan2((2.0*(q[0]*q[1] + q[2]*q[3])),
 617              		.loc 1 296 0
 618 00d2 6768     		ldr	r7, [r4, #4]	@ float
 619 00d4 3946     		mov	r1, r7
 620 00d6 2068     		ldr	r0, [r4]	@ float
 621 00d8 FFF7FEFF 		bl	__aeabi_fmul
 622              	.LVL79:
 623 00dc 8046     		mov	r8, r0
 624 00de A668     		ldr	r6, [r4, #8]	@ float
ARM GAS  /tmp/ccKYPvWI.s 			page 17


 625 00e0 E168     		ldr	r1, [r4, #12]	@ float
 626 00e2 3046     		mov	r0, r6
 627 00e4 FFF7FEFF 		bl	__aeabi_fmul
 628              	.LVL80:
 629 00e8 0146     		mov	r1, r0
 630 00ea 4046     		mov	r0, r8
 631 00ec FFF7FEFF 		bl	__aeabi_fadd
 632              	.LVL81:
 633 00f0 FFF7FEFF 		bl	__aeabi_f2d
 634              	.LVL82:
 635 00f4 8046     		mov	r8, r0
 636 00f6 8946     		mov	r9, r1
 297:Src/mpu9250.c **** 	                       (1 - 2.0*(q[1]*q[1] + q[2]*q[2])))*57.3; //roll
 637              		.loc 1 297 0
 638 00f8 3946     		mov	r1, r7
 639 00fa 3846     		mov	r0, r7
 640 00fc FFF7FEFF 		bl	__aeabi_fmul
 641              	.LVL83:
 642 0100 0446     		mov	r4, r0
 643 0102 3146     		mov	r1, r6
 644 0104 3046     		mov	r0, r6
 645 0106 FFF7FEFF 		bl	__aeabi_fmul
 646              	.LVL84:
 647 010a 0146     		mov	r1, r0
 648 010c 2046     		mov	r0, r4
 649 010e FFF7FEFF 		bl	__aeabi_fadd
 650              	.LVL85:
 651 0112 FFF7FEFF 		bl	__aeabi_f2d
 652              	.LVL86:
 653 0116 0246     		mov	r2, r0
 654 0118 0B46     		mov	r3, r1
 655 011a FFF7FEFF 		bl	__aeabi_dadd
 656              	.LVL87:
 296:Src/mpu9250.c **** 	                       (1 - 2.0*(q[1]*q[1] + q[2]*q[2])))*57.3; //roll
 657              		.loc 1 296 0
 658 011e 0246     		mov	r2, r0
 659 0120 0B46     		mov	r3, r1
 660 0122 0020     		movs	r0, #0
 661 0124 0F49     		ldr	r1, .L40+12
 662 0126 FFF7FEFF 		bl	__aeabi_dsub
 663              	.LVL88:
 664 012a 0646     		mov	r6, r0
 665 012c 0F46     		mov	r7, r1
 666 012e 4246     		mov	r2, r8
 667 0130 4B46     		mov	r3, r9
 668 0132 4046     		mov	r0, r8
 669 0134 4946     		mov	r1, r9
 670 0136 FFF7FEFF 		bl	__aeabi_dadd
 671              	.LVL89:
 672 013a 3246     		mov	r2, r6
 673 013c 3B46     		mov	r3, r7
 674 013e FFF7FEFF 		bl	atan2
 675              	.LVL90:
 676              		.loc 1 297 0
 677 0142 05A3     		adr	r3, .L40
 678 0144 D3E90023 		ldrd	r2, [r3]
 679 0148 FFF7FEFF 		bl	__aeabi_dmul
ARM GAS  /tmp/ccKYPvWI.s 			page 18


 680              	.LVL91:
 681 014c FFF7FEFF 		bl	__aeabi_d2f
 682              	.LVL92:
 296:Src/mpu9250.c **** 	                       (1 - 2.0*(q[1]*q[1] + q[2]*q[2])))*57.3; //roll
 683              		.loc 1 296 0
 684 0150 A860     		str	r0, [r5, #8]	@ float
 685 0152 BDE8F883 		pop	{r3, r4, r5, r6, r7, r8, r9, pc}
 686              	.L41:
 687 0156 00BF     		.align	3
 688              	.L40:
 689 0158 66666666 		.word	1717986918
 690 015c 66A64C40 		.word	1078765158
 691 0160 00000000 		.word	q
 692 0164 0000F03F 		.word	1072693248
 693 0168 00000000 		.word	yprf
 694              		.cfi_endproc
 695              	.LFE72:
 697              		.section	.text.getAcc_gyro,"ax",%progbits
 698              		.align	1
 699              		.global	getAcc_gyro
 700              		.syntax unified
 701              		.thumb
 702              		.thumb_func
 703              		.fpu softvfp
 705              	getAcc_gyro:
 706              	.LFB73:
 298:Src/mpu9250.c **** }
 299:Src/mpu9250.c **** 
 300:Src/mpu9250.c **** //ÁíÅÔºÑÁïªÈçîÁäªÔøΩÁÜ∑ÂÆ≥ÈçúÂ≤ÉÓùóÈñ´ÁÜ∑ÂÆ≥
 301:Src/mpu9250.c **** void getAcc_gyro()
 302:Src/mpu9250.c **** {
 707              		.loc 1 302 0
 708              		.cfi_startproc
 709              		@ args = 0, pretend = 0, frame = 24
 710              		@ frame_needed = 0, uses_anonymous_args = 0
 711 0000 10B5     		push	{r4, lr}
 712              	.LCFI16:
 713              		.cfi_def_cfa_offset 8
 714              		.cfi_offset 4, -8
 715              		.cfi_offset 14, -4
 716 0002 86B0     		sub	sp, sp, #24
 717              	.LCFI17:
 718              		.cfi_def_cfa_offset 32
 303:Src/mpu9250.c **** 	uint8_t buf[20];
 304:Src/mpu9250.c **** 	IICreadBytes(GYRO_ADDRESS,MPU9250_RA_ACCEL_XOUT_H,14,buf);
 719              		.loc 1 304 0
 720 0004 01AB     		add	r3, sp, #4
 721 0006 0E22     		movs	r2, #14
 722 0008 3B21     		movs	r1, #59
 723 000a D020     		movs	r0, #208
 724 000c FFF7FEFF 		bl	IICreadBytes
 725              	.LVL93:
 305:Src/mpu9250.c **** 	accelf[0]=	((int16_t)((buf[1]<<8)|buf[0]))/16384.0;//acc-x
 726              		.loc 1 305 0
 727 0010 9DF80530 		ldrb	r3, [sp, #5]	@ zero_extendqisi2
 728 0014 9DF80400 		ldrb	r0, [sp, #4]	@ zero_extendqisi2
 729 0018 40EA0320 		orr	r0, r0, r3, lsl #8
ARM GAS  /tmp/ccKYPvWI.s 			page 19


 730 001c 00B2     		sxth	r0, r0
 731 001e FFF7FEFF 		bl	__aeabi_i2d
 732              	.LVL94:
 733 0022 0022     		movs	r2, #0
 734 0024 2C4B     		ldr	r3, .L44
 735 0026 FFF7FEFF 		bl	__aeabi_dmul
 736              	.LVL95:
 737 002a FFF7FEFF 		bl	__aeabi_d2f
 738              	.LVL96:
 739 002e 2B4C     		ldr	r4, .L44+4
 740 0030 2060     		str	r0, [r4]	@ float
 306:Src/mpu9250.c **** 	accelf[1]=	((int16_t)((buf[3]<<8)|buf[2]))/16384.0;//acc-y
 741              		.loc 1 306 0
 742 0032 9DF80730 		ldrb	r3, [sp, #7]	@ zero_extendqisi2
 743 0036 9DF80600 		ldrb	r0, [sp, #6]	@ zero_extendqisi2
 744 003a 40EA0320 		orr	r0, r0, r3, lsl #8
 745 003e 00B2     		sxth	r0, r0
 746 0040 FFF7FEFF 		bl	__aeabi_i2d
 747              	.LVL97:
 748 0044 0022     		movs	r2, #0
 749 0046 244B     		ldr	r3, .L44
 750 0048 FFF7FEFF 		bl	__aeabi_dmul
 751              	.LVL98:
 752 004c FFF7FEFF 		bl	__aeabi_d2f
 753              	.LVL99:
 754 0050 6060     		str	r0, [r4, #4]	@ float
 307:Src/mpu9250.c **** 	accelf[2]=	((int16_t)((buf[5]<<8)|buf[4]))/16384.0;//acc-z
 755              		.loc 1 307 0
 756 0052 9DF80930 		ldrb	r3, [sp, #9]	@ zero_extendqisi2
 757 0056 9DF80800 		ldrb	r0, [sp, #8]	@ zero_extendqisi2
 758 005a 40EA0320 		orr	r0, r0, r3, lsl #8
 759 005e 00B2     		sxth	r0, r0
 760 0060 FFF7FEFF 		bl	__aeabi_i2d
 761              	.LVL100:
 762 0064 0022     		movs	r2, #0
 763 0066 1C4B     		ldr	r3, .L44
 764 0068 FFF7FEFF 		bl	__aeabi_dmul
 765              	.LVL101:
 766 006c FFF7FEFF 		bl	__aeabi_d2f
 767              	.LVL102:
 768 0070 A060     		str	r0, [r4, #8]	@ float
 308:Src/mpu9250.c **** 	gyrof[0]=	((int16_t)((buf[7]<<8)|buf[6]))/8192.0;//gyro-x
 769              		.loc 1 308 0
 770 0072 9DF80B30 		ldrb	r3, [sp, #11]	@ zero_extendqisi2
 771 0076 9DF80A00 		ldrb	r0, [sp, #10]	@ zero_extendqisi2
 772 007a 40EA0320 		orr	r0, r0, r3, lsl #8
 773 007e 00B2     		sxth	r0, r0
 774 0080 FFF7FEFF 		bl	__aeabi_i2d
 775              	.LVL103:
 776 0084 0022     		movs	r2, #0
 777 0086 164B     		ldr	r3, .L44+8
 778 0088 FFF7FEFF 		bl	__aeabi_dmul
 779              	.LVL104:
 780 008c FFF7FEFF 		bl	__aeabi_d2f
 781              	.LVL105:
 782 0090 144C     		ldr	r4, .L44+12
 783 0092 2060     		str	r0, [r4]	@ float
ARM GAS  /tmp/ccKYPvWI.s 			page 20


 309:Src/mpu9250.c **** 	gyrof[1]=	((int16_t)((buf[9]<<8)|buf[8]))/8192.0;//gyro-y
 784              		.loc 1 309 0
 785 0094 9DF80D30 		ldrb	r3, [sp, #13]	@ zero_extendqisi2
 786 0098 9DF80C00 		ldrb	r0, [sp, #12]	@ zero_extendqisi2
 787 009c 40EA0320 		orr	r0, r0, r3, lsl #8
 788 00a0 00B2     		sxth	r0, r0
 789 00a2 FFF7FEFF 		bl	__aeabi_i2d
 790              	.LVL106:
 791 00a6 0022     		movs	r2, #0
 792 00a8 0D4B     		ldr	r3, .L44+8
 793 00aa FFF7FEFF 		bl	__aeabi_dmul
 794              	.LVL107:
 795 00ae FFF7FEFF 		bl	__aeabi_d2f
 796              	.LVL108:
 797 00b2 6060     		str	r0, [r4, #4]	@ float
 310:Src/mpu9250.c **** 	gyrof[2]=	((int16_t)((buf[11]<<8)|buf[10]))/8192.0;//gyro-z
 798              		.loc 1 310 0
 799 00b4 9DF80F30 		ldrb	r3, [sp, #15]	@ zero_extendqisi2
 800 00b8 9DF80E00 		ldrb	r0, [sp, #14]	@ zero_extendqisi2
 801 00bc 40EA0320 		orr	r0, r0, r3, lsl #8
 802 00c0 00B2     		sxth	r0, r0
 803 00c2 FFF7FEFF 		bl	__aeabi_i2d
 804              	.LVL109:
 805 00c6 0022     		movs	r2, #0
 806 00c8 054B     		ldr	r3, .L44+8
 807 00ca FFF7FEFF 		bl	__aeabi_dmul
 808              	.LVL110:
 809 00ce FFF7FEFF 		bl	__aeabi_d2f
 810              	.LVL111:
 811 00d2 A060     		str	r0, [r4, #8]	@ float
 311:Src/mpu9250.c **** 	
 312:Src/mpu9250.c **** }
 812              		.loc 1 312 0
 813 00d4 06B0     		add	sp, sp, #24
 814              	.LCFI18:
 815              		.cfi_def_cfa_offset 8
 816              		@ sp needed
 817 00d6 10BD     		pop	{r4, pc}
 818              	.L45:
 819              		.align	2
 820              	.L44:
 821 00d8 0000103F 		.word	1058013184
 822 00dc 00000000 		.word	accelf
 823 00e0 0000203F 		.word	1059061760
 824 00e4 00000000 		.word	gyrof
 825              		.cfi_endproc
 826              	.LFE73:
 828              		.section	.text.getmag,"ax",%progbits
 829              		.align	1
 830              		.global	getmag
 831              		.syntax unified
 832              		.thumb
 833              		.thumb_func
 834              		.fpu softvfp
 836              	getmag:
 837              	.LFB74:
 313:Src/mpu9250.c **** // *********************************************************
ARM GAS  /tmp/ccKYPvWI.s 			page 21


 314:Src/mpu9250.c **** 
 315:Src/mpu9250.c **** //ÈëæÂ≥∞ÂΩá X/Y/Z Á∫æ‰Ω∏ÂßèÁíÅ‚Ä≥ÔøΩÔøΩ
 316:Src/mpu9250.c **** void getmag()
 317:Src/mpu9250.c **** {
 838              		.loc 1 317 0
 839              		.cfi_startproc
 840              		@ args = 0, pretend = 0, frame = 16
 841              		@ frame_needed = 0, uses_anonymous_args = 0
 842 0000 10B5     		push	{r4, lr}
 843              	.LCFI19:
 844              		.cfi_def_cfa_offset 8
 845              		.cfi_offset 4, -8
 846              		.cfi_offset 14, -4
 847 0002 84B0     		sub	sp, sp, #16
 848              	.LCFI20:
 849              		.cfi_def_cfa_offset 24
 318:Src/mpu9250.c **** 	uint8_t BUF[10];
 319:Src/mpu9250.c **** 	uint8_t temp;
 320:Src/mpu9250.c **** 	
 321:Src/mpu9250.c **** //	IICwriteByte(GYRO_ADDRESS,0x37,0x02);//turn on Bypass Mode 
 322:Src/mpu9250.c **** //	Delayms(30);	
 323:Src/mpu9250.c **** 
 324:Src/mpu9250.c **** 	while(1)
 325:Src/mpu9250.c **** 	{
 326:Src/mpu9250.c **** 		temp = IIC_ReadOneByte(MAG_ADDRESS,0x09)&0x08;
 850              		.loc 1 326 0
 851 0004 0921     		movs	r1, #9
 852 0006 1820     		movs	r0, #24
 853 0008 FFF7FEFF 		bl	IIC_ReadOneByte
 854              	.LVL112:
 327:Src/mpu9250.c **** 		if(temp)
 855              		.loc 1 327 0
 856 000c 10F0080F 		tst	r0, #8
 857 0010 3BD1     		bne	.L50
 328:Src/mpu9250.c **** 		{		
 329:Src/mpu9250.c **** 			IIC_ReadOneByte (MAG_ADDRESS,MPU9250_RA_MAG_XOUT_L);
 330:Src/mpu9250.c **** 			return;
 331:Src/mpu9250.c **** 		}
 332:Src/mpu9250.c **** 		else
 333:Src/mpu9250.c **** 		{
 334:Src/mpu9250.c **** 			IICreadBytes(MAG_ADDRESS,MPU9250_RA_MAG_XOUT_L,6,BUF);
 858              		.loc 1 334 0
 859 0012 01AB     		add	r3, sp, #4
 860 0014 0622     		movs	r2, #6
 861 0016 0321     		movs	r1, #3
 862 0018 1820     		movs	r0, #24
 863              	.LVL113:
 864 001a FFF7FEFF 		bl	IICreadBytes
 865              	.LVL114:
 335:Src/mpu9250.c **** 			mag[0]= ((int16_t)(BUF[1]<<8)|BUF[0]) * 0.15;//mag_x
 866              		.loc 1 335 0
 867 001e 9DF80530 		ldrb	r3, [sp, #5]	@ zero_extendqisi2
 868 0022 1B02     		lsls	r3, r3, #8
 869 0024 1BB2     		sxth	r3, r3
 870 0026 9DF80400 		ldrb	r0, [sp, #4]	@ zero_extendqisi2
 871 002a 1843     		orrs	r0, r0, r3
 872 002c FFF7FEFF 		bl	__aeabi_i2d
ARM GAS  /tmp/ccKYPvWI.s 			page 22


 873              	.LVL115:
 874 0030 19A3     		adr	r3, .L51
 875 0032 D3E90023 		ldrd	r2, [r3]
 876 0036 FFF7FEFF 		bl	__aeabi_dmul
 877              	.LVL116:
 878 003a FFF7FEFF 		bl	__aeabi_d2f
 879              	.LVL117:
 880 003e 184C     		ldr	r4, .L51+8
 881 0040 2060     		str	r0, [r4]	@ float
 336:Src/mpu9250.c **** 			mag[1]= ((int16_t)(BUF[3]<<8)|BUF[2]) * 0.15;//mag_y
 882              		.loc 1 336 0
 883 0042 9DF80730 		ldrb	r3, [sp, #7]	@ zero_extendqisi2
 884 0046 1B02     		lsls	r3, r3, #8
 885 0048 1BB2     		sxth	r3, r3
 886 004a 9DF80600 		ldrb	r0, [sp, #6]	@ zero_extendqisi2
 887 004e 1843     		orrs	r0, r0, r3
 888 0050 FFF7FEFF 		bl	__aeabi_i2d
 889              	.LVL118:
 890 0054 10A3     		adr	r3, .L51
 891 0056 D3E90023 		ldrd	r2, [r3]
 892 005a FFF7FEFF 		bl	__aeabi_dmul
 893              	.LVL119:
 894 005e FFF7FEFF 		bl	__aeabi_d2f
 895              	.LVL120:
 896 0062 6060     		str	r0, [r4, #4]	@ float
 337:Src/mpu9250.c **** 			mag[2]= ((int16_t)(BUF[5]<<8)|BUF[4]) *0.15;//mag_z
 897              		.loc 1 337 0
 898 0064 9DF80930 		ldrb	r3, [sp, #9]	@ zero_extendqisi2
 899 0068 1B02     		lsls	r3, r3, #8
 900 006a 1BB2     		sxth	r3, r3
 901 006c 9DF80800 		ldrb	r0, [sp, #8]	@ zero_extendqisi2
 902 0070 1843     		orrs	r0, r0, r3
 903 0072 FFF7FEFF 		bl	__aeabi_i2d
 904              	.LVL121:
 905 0076 08A3     		adr	r3, .L51
 906 0078 D3E90023 		ldrd	r2, [r3]
 907 007c FFF7FEFF 		bl	__aeabi_dmul
 908              	.LVL122:
 909 0080 FFF7FEFF 		bl	__aeabi_d2f
 910              	.LVL123:
 911 0084 A060     		str	r0, [r4, #8]	@ float
 912              	.L46:
 338:Src/mpu9250.c **** 			
 339:Src/mpu9250.c **** 			break;
 340:Src/mpu9250.c **** 		}
 341:Src/mpu9250.c **** 	}
 342:Src/mpu9250.c **** }
 913              		.loc 1 342 0
 914 0086 04B0     		add	sp, sp, #16
 915              	.LCFI21:
 916              		.cfi_remember_state
 917              		.cfi_def_cfa_offset 8
 918              		@ sp needed
 919 0088 10BD     		pop	{r4, pc}
 920              	.LVL124:
 921              	.L50:
 922              	.LCFI22:
ARM GAS  /tmp/ccKYPvWI.s 			page 23


 923              		.cfi_restore_state
 329:Src/mpu9250.c **** 			return;
 924              		.loc 1 329 0
 925 008a 0321     		movs	r1, #3
 926 008c 1820     		movs	r0, #24
 927              	.LVL125:
 928 008e FFF7FEFF 		bl	IIC_ReadOneByte
 929              	.LVL126:
 930 0092 F8E7     		b	.L46
 931              	.L52:
 932 0094 AFF30080 		.align	3
 933              	.L51:
 934 0098 33333333 		.word	858993459
 935 009c 3333C33F 		.word	1069757235
 936 00a0 00000000 		.word	mag
 937              		.cfi_endproc
 938              	.LFE74:
 940              		.section	.text.loadfirmware,"ax",%progbits
 941              		.align	1
 942              		.global	loadfirmware
 943              		.syntax unified
 944              		.thumb
 945              		.thumb_func
 946              		.fpu softvfp
 948              	loadfirmware:
 949              	.LFB75:
 343:Src/mpu9250.c **** 
 344:Src/mpu9250.c **** void loadfirmware(void)
 345:Src/mpu9250.c **** {
 950              		.loc 1 345 0
 951              		.cfi_startproc
 952              		@ args = 0, pretend = 0, frame = 0
 953              		@ frame_needed = 0, uses_anonymous_args = 0
 954 0000 38B5     		push	{r3, r4, r5, lr}
 955              	.LCFI23:
 956              		.cfi_def_cfa_offset 16
 957              		.cfi_offset 3, -16
 958              		.cfi_offset 4, -12
 959              		.cfi_offset 5, -8
 960              		.cfi_offset 14, -4
 961              	.LVL127:
 346:Src/mpu9250.c ****   unsigned int datanum=0;
 347:Src/mpu9250.c ****   unsigned char bank;
 348:Src/mpu9250.c ****   unsigned lastbank=1;
 962              		.loc 1 348 0
 963 0002 0123     		movs	r3, #1
 349:Src/mpu9250.c ****   for (datanum=0;datanum<1929;datanum++)
 964              		.loc 1 349 0
 965 0004 0024     		movs	r4, #0
 966 0006 07E0     		b	.L54
 967              	.LVL128:
 968              	.L55:
 350:Src/mpu9250.c ****    {
 351:Src/mpu9250.c ****      bank=datanum/256;
 352:Src/mpu9250.c ****      if(lastbank!=bank)
 353:Src/mpu9250.c ****      {
 354:Src/mpu9250.c ****        IICwriteByte(GYRO_ADDRESS,0x6d,bank);
ARM GAS  /tmp/ccKYPvWI.s 			page 24


 355:Src/mpu9250.c ****        IICwriteByte(GYRO_ADDRESS,0x6e,0);
 356:Src/mpu9250.c ****      }
 357:Src/mpu9250.c **** 
 358:Src/mpu9250.c ****      IICwriteByte(GYRO_ADDRESS,0x6f,dmpmemorydata[datanum]);  
 969              		.loc 1 358 0 discriminator 2
 970 0008 0D4B     		ldr	r3, .L59
 971 000a 1A5D     		ldrb	r2, [r3, r4]	@ zero_extendqisi2
 972 000c 6F21     		movs	r1, #111
 973 000e D020     		movs	r0, #208
 974 0010 FFF7FEFF 		bl	IICwriteByte
 975              	.LVL129:
 349:Src/mpu9250.c ****   for (datanum=0;datanum<1929;datanum++)
 976              		.loc 1 349 0 discriminator 2
 977 0014 0134     		adds	r4, r4, #1
 978              	.LVL130:
 359:Src/mpu9250.c ****      lastbank=bank; 
 979              		.loc 1 359 0 discriminator 2
 980 0016 2B46     		mov	r3, r5
 981              	.LVL131:
 982              	.L54:
 349:Src/mpu9250.c ****   for (datanum=0;datanum<1929;datanum++)
 983              		.loc 1 349 0 discriminator 1
 984 0018 B4F5F16F 		cmp	r4, #1928
 985 001c 0ED8     		bhi	.L58
 351:Src/mpu9250.c ****      if(lastbank!=bank)
 986              		.loc 1 351 0
 987 001e C4F30725 		ubfx	r5, r4, #8, #8
 988              	.LVL132:
 352:Src/mpu9250.c ****      {
 989              		.loc 1 352 0
 990 0022 AB42     		cmp	r3, r5
 991 0024 F0D0     		beq	.L55
 354:Src/mpu9250.c ****        IICwriteByte(GYRO_ADDRESS,0x6e,0);
 992              		.loc 1 354 0
 993 0026 2A46     		mov	r2, r5
 994 0028 6D21     		movs	r1, #109
 995 002a D020     		movs	r0, #208
 996 002c FFF7FEFF 		bl	IICwriteByte
 997              	.LVL133:
 355:Src/mpu9250.c ****      }
 998              		.loc 1 355 0
 999 0030 0022     		movs	r2, #0
 1000 0032 6E21     		movs	r1, #110
 1001 0034 D020     		movs	r0, #208
 1002 0036 FFF7FEFF 		bl	IICwriteByte
 1003              	.LVL134:
 1004 003a E5E7     		b	.L55
 1005              	.LVL135:
 1006              	.L58:
 360:Src/mpu9250.c ****     };
 361:Src/mpu9250.c **** }
 1007              		.loc 1 361 0
 1008 003c 38BD     		pop	{r3, r4, r5, pc}
 1009              	.LVL136:
 1010              	.L60:
 1011 003e 00BF     		.align	2
 1012              	.L59:
ARM GAS  /tmp/ccKYPvWI.s 			page 25


 1013 0040 00000000 		.word	.LANCHOR0
 1014              		.cfi_endproc
 1015              	.LFE75:
 1017              		.section	.text.loadcfgupd,"ax",%progbits
 1018              		.align	1
 1019              		.global	loadcfgupd
 1020              		.syntax unified
 1021              		.thumb
 1022              		.thumb_func
 1023              		.fpu softvfp
 1025              	loadcfgupd:
 1026              	.LFB76:
 362:Src/mpu9250.c **** 
 363:Src/mpu9250.c **** void loadcfgupd(void)
 364:Src/mpu9250.c **** {
 1027              		.loc 1 364 0
 1028              		.cfi_startproc
 1029              		@ args = 0, pretend = 0, frame = 0
 1030              		@ frame_needed = 0, uses_anonymous_args = 0
 1031 0000 F8B5     		push	{r3, r4, r5, r6, r7, lr}
 1032              	.LCFI24:
 1033              		.cfi_def_cfa_offset 24
 1034              		.cfi_offset 3, -24
 1035              		.cfi_offset 4, -20
 1036              		.cfi_offset 5, -16
 1037              		.cfi_offset 6, -12
 1038              		.cfi_offset 7, -8
 1039              		.cfi_offset 14, -4
 1040              	.LVL137:
 365:Src/mpu9250.c ****   unsigned char line;
 366:Src/mpu9250.c ****   unsigned char bank;
 367:Src/mpu9250.c ****   unsigned char datacounts=0;
 1041              		.loc 1 367 0
 1042 0002 0023     		movs	r3, #0
 368:Src/mpu9250.c ****   unsigned char bytes2write;
 369:Src/mpu9250.c ****   unsigned char offset;
 370:Src/mpu9250.c ****   unsigned char writingcounts;
 371:Src/mpu9250.c ****      
 372:Src/mpu9250.c ****   for (line=0;line<37;line++)
 1043              		.loc 1 372 0
 1044 0004 1F46     		mov	r7, r3
 1045 0006 0FE0     		b	.L62
 1046              	.LVL138:
 1047              	.L64:
 373:Src/mpu9250.c ****   {
 374:Src/mpu9250.c ****     bank=dmpcfgupddata[datacounts];
 375:Src/mpu9250.c ****     datacounts++;
 376:Src/mpu9250.c ****     offset=dmpcfgupddata[datacounts];
 377:Src/mpu9250.c ****     datacounts++;
 378:Src/mpu9250.c ****     bytes2write=dmpcfgupddata[datacounts];
 379:Src/mpu9250.c **** 
 380:Src/mpu9250.c ****     IICwriteByte(GYRO_ADDRESS,0x6d,bank);  
 381:Src/mpu9250.c ****     IICwriteByte(GYRO_ADDRESS,0x6e,offset);
 382:Src/mpu9250.c ****     for (writingcounts=0;writingcounts<bytes2write;writingcounts++)
 383:Src/mpu9250.c ****     {
 384:Src/mpu9250.c ****       datacounts++;
 1048              		.loc 1 384 0 discriminator 3
ARM GAS  /tmp/ccKYPvWI.s 			page 26


 1049 0008 0134     		adds	r4, r4, #1
 1050              	.LVL139:
 1051 000a E4B2     		uxtb	r4, r4
 1052              	.LVL140:
 385:Src/mpu9250.c **** 
 386:Src/mpu9250.c ****       IICwriteByte(GYRO_ADDRESS,0x6f,dmpcfgupddata[datacounts]);  
 1053              		.loc 1 386 0 discriminator 3
 1054 000c 114B     		ldr	r3, .L68
 1055 000e 1A5D     		ldrb	r2, [r3, r4]	@ zero_extendqisi2
 1056 0010 6F21     		movs	r1, #111
 1057 0012 D020     		movs	r0, #208
 1058 0014 FFF7FEFF 		bl	IICwriteByte
 1059              	.LVL141:
 382:Src/mpu9250.c ****     {
 1060              		.loc 1 382 0 discriminator 3
 1061 0018 0135     		adds	r5, r5, #1
 1062              	.LVL142:
 1063 001a EDB2     		uxtb	r5, r5
 1064              	.LVL143:
 1065              	.L63:
 382:Src/mpu9250.c ****     {
 1066              		.loc 1 382 0 is_stmt 0 discriminator 1
 1067 001c B542     		cmp	r5, r6
 1068 001e F3D3     		bcc	.L64
 387:Src/mpu9250.c ****     }
 388:Src/mpu9250.c ****        datacounts++;
 1069              		.loc 1 388 0 is_stmt 1 discriminator 2
 1070 0020 0134     		adds	r4, r4, #1
 1071              	.LVL144:
 1072 0022 E3B2     		uxtb	r3, r4
 1073              	.LVL145:
 372:Src/mpu9250.c ****   {
 1074              		.loc 1 372 0 discriminator 2
 1075 0024 0137     		adds	r7, r7, #1
 1076              	.LVL146:
 1077 0026 FFB2     		uxtb	r7, r7
 1078              	.LVL147:
 1079              	.L62:
 372:Src/mpu9250.c ****   {
 1080              		.loc 1 372 0 is_stmt 0 discriminator 1
 1081 0028 242F     		cmp	r7, #36
 1082 002a 12D8     		bhi	.L67
 374:Src/mpu9250.c ****     datacounts++;
 1083              		.loc 1 374 0 is_stmt 1
 1084 002c 094A     		ldr	r2, .L68
 1085              	.LVL148:
 375:Src/mpu9250.c ****     offset=dmpcfgupddata[datacounts];
 1086              		.loc 1 375 0
 1087 002e 591C     		adds	r1, r3, #1
 1088 0030 C9B2     		uxtb	r1, r1
 1089              	.LVL149:
 376:Src/mpu9250.c ****     datacounts++;
 1090              		.loc 1 376 0
 1091 0032 555C     		ldrb	r5, [r2, r1]	@ zero_extendqisi2
 1092              	.LVL150:
 377:Src/mpu9250.c ****     bytes2write=dmpcfgupddata[datacounts];
 1093              		.loc 1 377 0
ARM GAS  /tmp/ccKYPvWI.s 			page 27


 1094 0034 9C1C     		adds	r4, r3, #2
 1095 0036 E4B2     		uxtb	r4, r4
 1096              	.LVL151:
 378:Src/mpu9250.c **** 
 1097              		.loc 1 378 0
 1098 0038 165D     		ldrb	r6, [r2, r4]	@ zero_extendqisi2
 1099              	.LVL152:
 380:Src/mpu9250.c ****     IICwriteByte(GYRO_ADDRESS,0x6e,offset);
 1100              		.loc 1 380 0
 1101 003a D25C     		ldrb	r2, [r2, r3]	@ zero_extendqisi2
 1102              	.LVL153:
 1103 003c 6D21     		movs	r1, #109
 1104 003e D020     		movs	r0, #208
 1105 0040 FFF7FEFF 		bl	IICwriteByte
 1106              	.LVL154:
 381:Src/mpu9250.c ****     for (writingcounts=0;writingcounts<bytes2write;writingcounts++)
 1107              		.loc 1 381 0
 1108 0044 2A46     		mov	r2, r5
 1109 0046 6E21     		movs	r1, #110
 1110 0048 D020     		movs	r0, #208
 1111 004a FFF7FEFF 		bl	IICwriteByte
 1112              	.LVL155:
 382:Src/mpu9250.c ****     {
 1113              		.loc 1 382 0
 1114 004e 0025     		movs	r5, #0
 1115              	.LVL156:
 1116 0050 E4E7     		b	.L63
 1117              	.LVL157:
 1118              	.L67:
 389:Src/mpu9250.c ****   }
 390:Src/mpu9250.c **** }
 1119              		.loc 1 390 0
 1120 0052 F8BD     		pop	{r3, r4, r5, r6, r7, pc}
 1121              	.LVL158:
 1122              	.L69:
 1123              		.align	2
 1124              	.L68:
 1125 0054 00000000 		.word	.LANCHOR1
 1126              		.cfi_endproc
 1127              	.LFE76:
 1129              		.section	.text.MPU9250_Sleep,"ax",%progbits
 1130              		.align	1
 1131              		.global	MPU9250_Sleep
 1132              		.syntax unified
 1133              		.thumb
 1134              		.thumb_func
 1135              		.fpu softvfp
 1137              	MPU9250_Sleep:
 1138              	.LFB77:
 391:Src/mpu9250.c **** 
 392:Src/mpu9250.c **** 
 393:Src/mpu9250.c **** void MPU9250_Sleep()
 394:Src/mpu9250.c **** {
 1139              		.loc 1 394 0
 1140              		.cfi_startproc
 1141              		@ args = 0, pretend = 0, frame = 0
 1142              		@ frame_needed = 0, uses_anonymous_args = 0
ARM GAS  /tmp/ccKYPvWI.s 			page 28


 1143 0000 08B5     		push	{r3, lr}
 1144              	.LCFI25:
 1145              		.cfi_def_cfa_offset 8
 1146              		.cfi_offset 3, -8
 1147              		.cfi_offset 14, -4
 395:Src/mpu9250.c **** 	IICwriteByte(GYRO_ADDRESS,MPU9250_RA_PWR_MGMT_1, 0x40);//pw1	
 1148              		.loc 1 395 0
 1149 0002 4022     		movs	r2, #64
 1150 0004 6B21     		movs	r1, #107
 1151 0006 D020     		movs	r0, #208
 1152 0008 FFF7FEFF 		bl	IICwriteByte
 1153              	.LVL159:
 1154 000c 08BD     		pop	{r3, pc}
 1155              		.cfi_endproc
 1156              	.LFE77:
 1158              		.section	.text.MPU9250_WakeUp,"ax",%progbits
 1159              		.align	1
 1160              		.global	MPU9250_WakeUp
 1161              		.syntax unified
 1162              		.thumb
 1163              		.thumb_func
 1164              		.fpu softvfp
 1166              	MPU9250_WakeUp:
 1167              	.LFB78:
 396:Src/mpu9250.c **** }
 397:Src/mpu9250.c **** 
 398:Src/mpu9250.c **** void MPU9250_WakeUp()
 399:Src/mpu9250.c **** {
 1168              		.loc 1 399 0
 1169              		.cfi_startproc
 1170              		@ args = 0, pretend = 0, frame = 0
 1171              		@ frame_needed = 0, uses_anonymous_args = 0
 1172 0000 08B5     		push	{r3, lr}
 1173              	.LCFI26:
 1174              		.cfi_def_cfa_offset 8
 1175              		.cfi_offset 3, -8
 1176              		.cfi_offset 14, -4
 400:Src/mpu9250.c **** 	IICwriteByte(GYRO_ADDRESS,MPU9250_RA_PWR_MGMT_1, 0x00);//pw1	
 1177              		.loc 1 400 0
 1178 0002 0022     		movs	r2, #0
 1179 0004 6B21     		movs	r1, #107
 1180 0006 D020     		movs	r0, #208
 1181 0008 FFF7FEFF 		bl	IICwriteByte
 1182              	.LVL160:
 1183 000c 08BD     		pop	{r3, pc}
 1184              		.cfi_endproc
 1185              	.LFE78:
 1187              		.section	.text.MPU9250_resetFIFO,"ax",%progbits
 1188              		.align	1
 1189              		.global	MPU9250_resetFIFO
 1190              		.syntax unified
 1191              		.thumb
 1192              		.thumb_func
 1193              		.fpu softvfp
 1195              	MPU9250_resetFIFO:
 1196              	.LFB79:
 401:Src/mpu9250.c **** }
ARM GAS  /tmp/ccKYPvWI.s 			page 29


 402:Src/mpu9250.c **** 
 403:Src/mpu9250.c **** 
 404:Src/mpu9250.c **** void MPU9250_resetFIFO(void)
 405:Src/mpu9250.c **** {
 1197              		.loc 1 405 0
 1198              		.cfi_startproc
 1199              		@ args = 0, pretend = 0, frame = 0
 1200              		@ frame_needed = 0, uses_anonymous_args = 0
 1201 0000 08B5     		push	{r3, lr}
 1202              	.LCFI27:
 1203              		.cfi_def_cfa_offset 8
 1204              		.cfi_offset 3, -8
 1205              		.cfi_offset 14, -4
 406:Src/mpu9250.c ****     IICwriteBit(GYRO_ADDRESS, MPU9250_RA_USER_CTRL, MPU9250_USERCTRL_FIFO_RESET_BIT, 1);
 1206              		.loc 1 406 0
 1207 0002 0123     		movs	r3, #1
 1208 0004 0222     		movs	r2, #2
 1209 0006 6A21     		movs	r1, #106
 1210 0008 D020     		movs	r0, #208
 1211 000a FFF7FEFF 		bl	IICwriteBit
 1212              	.LVL161:
 1213 000e 08BD     		pop	{r3, pc}
 1214              		.cfi_endproc
 1215              	.LFE79:
 1217              		.section	.text.MPU9250_getFIFOCount,"ax",%progbits
 1218              		.align	1
 1219              		.global	MPU9250_getFIFOCount
 1220              		.syntax unified
 1221              		.thumb
 1222              		.thumb_func
 1223              		.fpu softvfp
 1225              	MPU9250_getFIFOCount:
 1226              	.LFB80:
 407:Src/mpu9250.c **** }
 408:Src/mpu9250.c **** 
 409:Src/mpu9250.c **** 
 410:Src/mpu9250.c **** uint16_t MPU9250_getFIFOCount(void) 
 411:Src/mpu9250.c **** {
 1227              		.loc 1 411 0
 1228              		.cfi_startproc
 1229              		@ args = 0, pretend = 0, frame = 8
 1230              		@ frame_needed = 0, uses_anonymous_args = 0
 1231 0000 00B5     		push	{lr}
 1232              	.LCFI28:
 1233              		.cfi_def_cfa_offset 4
 1234              		.cfi_offset 14, -4
 1235 0002 83B0     		sub	sp, sp, #12
 1236              	.LCFI29:
 1237              		.cfi_def_cfa_offset 16
 412:Src/mpu9250.c **** 	uint8_t buffer[2] = {0};
 1238              		.loc 1 412 0
 1239 0004 02AB     		add	r3, sp, #8
 1240 0006 0022     		movs	r2, #0
 1241 0008 23F8042D 		strh	r2, [r3, #-4]!	@ movhi
 413:Src/mpu9250.c **** 	IICreadBytes(GYRO_ADDRESS, MPU9250_RA_FIFO_COUNTH, 2, buffer);
 1242              		.loc 1 413 0
 1243 000c 0222     		movs	r2, #2
ARM GAS  /tmp/ccKYPvWI.s 			page 30


 1244 000e 7221     		movs	r1, #114
 1245 0010 D020     		movs	r0, #208
 1246 0012 FFF7FEFF 		bl	IICreadBytes
 1247              	.LVL162:
 414:Src/mpu9250.c **** 	return (((uint16_t)buffer[0]) << 8) | buffer[1];
 1248              		.loc 1 414 0
 1249 0016 9DF80400 		ldrb	r0, [sp, #4]	@ zero_extendqisi2
 1250 001a 9DF80530 		ldrb	r3, [sp, #5]	@ zero_extendqisi2
 415:Src/mpu9250.c **** }
 1251              		.loc 1 415 0
 1252 001e 43EA0020 		orr	r0, r3, r0, lsl #8
 1253 0022 03B0     		add	sp, sp, #12
 1254              	.LCFI30:
 1255              		.cfi_def_cfa_offset 4
 1256              		@ sp needed
 1257 0024 5DF804FB 		ldr	pc, [sp], #4
 1258              		.cfi_endproc
 1259              	.LFE80:
 1261              		.section	.text.Init_MPU9250_With_DMP,"ax",%progbits
 1262              		.align	1
 1263              		.global	Init_MPU9250_With_DMP
 1264              		.syntax unified
 1265              		.thumb
 1266              		.thumb_func
 1267              		.fpu softvfp
 1269              	Init_MPU9250_With_DMP:
 1270              	.LFB81:
 416:Src/mpu9250.c **** 
 417:Src/mpu9250.c **** // ÈçíÊøÜÓùêÈçñÊúöPU9250È™ûÊúµÁ¨ñÂØÆÔøΩÈçöÁñçMP
 418:Src/mpu9250.c **** void Init_MPU9250_With_DMP(void)
 419:Src/mpu9250.c **** { 
 1271              		.loc 1 419 0
 1272              		.cfi_startproc
 1273              		@ args = 0, pretend = 0, frame = 0
 1274              		@ frame_needed = 0, uses_anonymous_args = 0
 1275 0000 08B5     		push	{r3, lr}
 1276              	.LCFI31:
 1277              		.cfi_def_cfa_offset 8
 1278              		.cfi_offset 3, -8
 1279              		.cfi_offset 14, -4
 420:Src/mpu9250.c **** 	IICwriteByte(GYRO_ADDRESS,MPU9250_RA_PWR_MGMT_1, 0x80);//pw1	
 1280              		.loc 1 420 0
 1281 0002 8022     		movs	r2, #128
 1282 0004 6B21     		movs	r1, #107
 1283 0006 D020     		movs	r0, #208
 1284 0008 FFF7FEFF 		bl	IICwriteByte
 1285              	.LVL163:
 421:Src/mpu9250.c **** 	Delayms(100);
 422:Src/mpu9250.c **** 	IICwriteByte(GYRO_ADDRESS,MPU9250_RA_PWR_MGMT_1, 0x00);//pw1	
 1286              		.loc 1 422 0
 1287 000c 0022     		movs	r2, #0
 1288 000e 6B21     		movs	r1, #107
 1289 0010 D020     		movs	r0, #208
 1290 0012 FFF7FEFF 		bl	IICwriteByte
 1291              	.LVL164:
 423:Src/mpu9250.c **** 	IICwriteByte(GYRO_ADDRESS,MPU9250_RA_PWR_MGMT_2, 0x00);//pw2	
 1292              		.loc 1 423 0
ARM GAS  /tmp/ccKYPvWI.s 			page 31


 1293 0016 0022     		movs	r2, #0
 1294 0018 6C21     		movs	r1, #108
 1295 001a D020     		movs	r0, #208
 1296 001c FFF7FEFF 		bl	IICwriteByte
 1297              	.LVL165:
 424:Src/mpu9250.c **** 	
 425:Src/mpu9250.c **** 	IICwriteByte(GYRO_ADDRESS,MPU9250_RA_SMPLRT_DIV, 0x04);//1000/50 = 20hz
 1298              		.loc 1 425 0
 1299 0020 0422     		movs	r2, #4
 1300 0022 1921     		movs	r1, #25
 1301 0024 D020     		movs	r0, #208
 1302 0026 FFF7FEFF 		bl	IICwriteByte
 1303              	.LVL166:
 426:Src/mpu9250.c **** 	IICwriteByte(GYRO_ADDRESS,MPU9250_RA_CONFIG, 0x06); //1KHZ
 1304              		.loc 1 426 0
 1305 002a 0622     		movs	r2, #6
 1306 002c 1A21     		movs	r1, #26
 1307 002e D020     		movs	r0, #208
 1308 0030 FFF7FEFF 		bl	IICwriteByte
 1309              	.LVL167:
 427:Src/mpu9250.c **** 	IICwriteByte(GYRO_ADDRESS,MPU9250_RA_GYRO_CONFIG, 0x18);//+- 2000
 1310              		.loc 1 427 0
 1311 0034 1822     		movs	r2, #24
 1312 0036 1B21     		movs	r1, #27
 1313 0038 D020     		movs	r0, #208
 1314 003a FFF7FEFF 		bl	IICwriteByte
 1315              	.LVL168:
 428:Src/mpu9250.c **** 	IICwriteByte(GYRO_ADDRESS,MPU9250_RA_ACCEL_CONFIG, 0x10);//+- 4g
 1316              		.loc 1 428 0
 1317 003e 1022     		movs	r2, #16
 1318 0040 1C21     		movs	r1, #28
 1319 0042 D020     		movs	r0, #208
 1320 0044 FFF7FEFF 		bl	IICwriteByte
 1321              	.LVL169:
 429:Src/mpu9250.c **** 
 430:Src/mpu9250.c **** // **********************DMP Èê®ÂãØÂé§ÁºÉÔøΩ(ÂØÆÔøΩÈçöÁñçMP ÈîõÂ≤ÉÓÜïÁºÉÁì∫MP FIFO)****************
 431:Src/mpu9250.c **** 	loadfirmware(); 
 1322              		.loc 1 431 0
 1323 0048 FFF7FEFF 		bl	loadfirmware
 1324              	.LVL170:
 432:Src/mpu9250.c **** 	loadcfgupd();
 1325              		.loc 1 432 0
 1326 004c FFF7FEFF 		bl	loadcfgupd
 1327              	.LVL171:
 433:Src/mpu9250.c **** 	
 434:Src/mpu9250.c **** 	IICwriteByte(GYRO_ADDRESS,MPU9250_RA_DMP_CFG_1 , 0x03);                         
 1328              		.loc 1 434 0
 1329 0050 0322     		movs	r2, #3
 1330 0052 7021     		movs	r1, #112
 1331 0054 D020     		movs	r0, #208
 1332 0056 FFF7FEFF 		bl	IICwriteByte
 1333              	.LVL172:
 435:Src/mpu9250.c **** 	IICwriteByte(GYRO_ADDRESS,MPU9250_RA_DMP_CFG_2 , 0x00);                         
 1334              		.loc 1 435 0
 1335 005a 0022     		movs	r2, #0
 1336 005c 7121     		movs	r1, #113
 1337 005e D020     		movs	r0, #208
ARM GAS  /tmp/ccKYPvWI.s 			page 32


 1338 0060 FFF7FEFF 		bl	IICwriteByte
 1339              	.LVL173:
 436:Src/mpu9250.c **** 	IICwriteByte(GYRO_ADDRESS,MPU9250_RA_USER_CTRL , 0xcc);  
 1340              		.loc 1 436 0
 1341 0064 CC22     		movs	r2, #204
 1342 0066 6A21     		movs	r1, #106
 1343 0068 D020     		movs	r0, #208
 1344 006a FFF7FEFF 		bl	IICwriteByte
 1345              	.LVL174:
 1346 006e 08BD     		pop	{r3, pc}
 1347              		.cfi_endproc
 1348              	.LFE81:
 1350              		.global	dmpcfgupddata
 1351              		.global	dmpmemorydata
 1352              		.comm	dmpdatas,42,4
 1353              		.comm	mag,12,4
 1354              		.comm	yprf,12,4
 1355              		.comm	accelf,12,4
 1356              		.comm	gyrof,12,4
 1357              		.comm	q,16,4
 1358              		.section	.rodata.dmpcfgupddata,"a",%progbits
 1359              		.align	2
 1360              		.set	.LANCHOR1,. + 0
 1363              	dmpcfgupddata:
 1364 0000 03       		.byte	3
 1365 0001 7B       		.byte	123
 1366 0002 03       		.byte	3
 1367 0003 4C       		.byte	76
 1368 0004 CD       		.byte	-51
 1369 0005 6C       		.byte	108
 1370 0006 03       		.byte	3
 1371 0007 AB       		.byte	-85
 1372 0008 03       		.byte	3
 1373 0009 36       		.byte	54
 1374 000a 56       		.byte	86
 1375 000b 76       		.byte	118
 1376 000c 00       		.byte	0
 1377 000d 68       		.byte	104
 1378 000e 04       		.byte	4
 1379 000f 02       		.byte	2
 1380 0010 CB       		.byte	-53
 1381 0011 47       		.byte	71
 1382 0012 A2       		.byte	-94
 1383 0013 02       		.byte	2
 1384 0014 18       		.byte	24
 1385 0015 04       		.byte	4
 1386 0016 00       		.byte	0
 1387 0017 05       		.byte	5
 1388 0018 8B       		.byte	-117
 1389 0019 C1       		.byte	-63
 1390 001a 01       		.byte	1
 1391 001b 0C       		.byte	12
 1392 001c 04       		.byte	4
 1393 001d 00       		.byte	0
 1394 001e 00       		.byte	0
 1395 001f 00       		.byte	0
 1396 0020 00       		.byte	0
ARM GAS  /tmp/ccKYPvWI.s 			page 33


 1397 0021 03       		.byte	3
 1398 0022 7F       		.byte	127
 1399 0023 06       		.byte	6
 1400 0024 0C       		.byte	12
 1401 0025 C9       		.byte	-55
 1402 0026 2C       		.byte	44
 1403 0027 97       		.byte	-105
 1404 0028 97       		.byte	-105
 1405 0029 97       		.byte	-105
 1406 002a 03       		.byte	3
 1407 002b 89       		.byte	-119
 1408 002c 03       		.byte	3
 1409 002d 26       		.byte	38
 1410 002e 46       		.byte	70
 1411 002f 66       		.byte	102
 1412 0030 00       		.byte	0
 1413 0031 6C       		.byte	108
 1414 0032 02       		.byte	2
 1415 0033 20       		.byte	32
 1416 0034 00       		.byte	0
 1417 0035 02       		.byte	2
 1418 0036 40       		.byte	64
 1419 0037 04       		.byte	4
 1420 0038 00       		.byte	0
 1421 0039 00       		.byte	0
 1422 003a 00       		.byte	0
 1423 003b 00       		.byte	0
 1424 003c 02       		.byte	2
 1425 003d 44       		.byte	68
 1426 003e 04       		.byte	4
 1427 003f 00       		.byte	0
 1428 0040 00       		.byte	0
 1429 0041 00       		.byte	0
 1430 0042 00       		.byte	0
 1431 0043 02       		.byte	2
 1432 0044 48       		.byte	72
 1433 0045 04       		.byte	4
 1434 0046 00       		.byte	0
 1435 0047 00       		.byte	0
 1436 0048 00       		.byte	0
 1437 0049 00       		.byte	0
 1438 004a 02       		.byte	2
 1439 004b 4C       		.byte	76
 1440 004c 04       		.byte	4
 1441 004d 00       		.byte	0
 1442 004e 00       		.byte	0
 1443 004f 00       		.byte	0
 1444 0050 00       		.byte	0
 1445 0051 02       		.byte	2
 1446 0052 50       		.byte	80
 1447 0053 04       		.byte	4
 1448 0054 00       		.byte	0
 1449 0055 00       		.byte	0
 1450 0056 00       		.byte	0
 1451 0057 00       		.byte	0
 1452 0058 02       		.byte	2
 1453 0059 54       		.byte	84
ARM GAS  /tmp/ccKYPvWI.s 			page 34


 1454 005a 04       		.byte	4
 1455 005b 00       		.byte	0
 1456 005c 00       		.byte	0
 1457 005d 00       		.byte	0
 1458 005e 00       		.byte	0
 1459 005f 02       		.byte	2
 1460 0060 58       		.byte	88
 1461 0061 04       		.byte	4
 1462 0062 00       		.byte	0
 1463 0063 00       		.byte	0
 1464 0064 00       		.byte	0
 1465 0065 00       		.byte	0
 1466 0066 02       		.byte	2
 1467 0067 5C       		.byte	92
 1468 0068 04       		.byte	4
 1469 0069 00       		.byte	0
 1470 006a 00       		.byte	0
 1471 006b 00       		.byte	0
 1472 006c 00       		.byte	0
 1473 006d 02       		.byte	2
 1474 006e BC       		.byte	-68
 1475 006f 04       		.byte	4
 1476 0070 00       		.byte	0
 1477 0071 00       		.byte	0
 1478 0072 00       		.byte	0
 1479 0073 00       		.byte	0
 1480 0074 01       		.byte	1
 1481 0075 EC       		.byte	-20
 1482 0076 04       		.byte	4
 1483 0077 00       		.byte	0
 1484 0078 00       		.byte	0
 1485 0079 40       		.byte	64
 1486 007a 00       		.byte	0
 1487 007b 03       		.byte	3
 1488 007c 7F       		.byte	127
 1489 007d 06       		.byte	6
 1490 007e 0C       		.byte	12
 1491 007f C9       		.byte	-55
 1492 0080 2C       		.byte	44
 1493 0081 97       		.byte	-105
 1494 0082 97       		.byte	-105
 1495 0083 97       		.byte	-105
 1496 0084 04       		.byte	4
 1497 0085 02       		.byte	2
 1498 0086 03       		.byte	3
 1499 0087 0D       		.byte	13
 1500 0088 35       		.byte	53
 1501 0089 5D       		.byte	93
 1502 008a 04       		.byte	4
 1503 008b 09       		.byte	9
 1504 008c 04       		.byte	4
 1505 008d 87       		.byte	-121
 1506 008e 2D       		.byte	45
 1507 008f 35       		.byte	53
 1508 0090 3D       		.byte	61
 1509 0091 00       		.byte	0
 1510 0092 A3       		.byte	-93
ARM GAS  /tmp/ccKYPvWI.s 			page 35


 1511 0093 01       		.byte	1
 1512 0094 00       		.byte	0
 1513 0095 00       		.byte	0
 1514 0096 00       		.byte	0
 1515 0097 01       		.byte	1
 1516 0098 01       		.byte	1
 1517 0099 07       		.byte	7
 1518 009a 86       		.byte	-122
 1519 009b 01       		.byte	1
 1520 009c FE       		.byte	-2
 1521 009d 07       		.byte	7
 1522 009e 41       		.byte	65
 1523 009f 05       		.byte	5
 1524 00a0 F1       		.byte	-15
 1525 00a1 20       		.byte	32
 1526 00a2 28       		.byte	40
 1527 00a3 30       		.byte	48
 1528 00a4 38       		.byte	56
 1529 00a5 07       		.byte	7
 1530 00a6 7E       		.byte	126
 1531 00a7 01       		.byte	1
 1532 00a8 30       		.byte	48
 1533 00a9 07       		.byte	7
 1534 00aa 46       		.byte	70
 1535 00ab 01       		.byte	1
 1536 00ac 9A       		.byte	-102
 1537 00ad 07       		.byte	7
 1538 00ae 47       		.byte	71
 1539 00af 04       		.byte	4
 1540 00b0 F1       		.byte	-15
 1541 00b1 28       		.byte	40
 1542 00b2 30       		.byte	48
 1543 00b3 38       		.byte	56
 1544 00b4 07       		.byte	7
 1545 00b5 6C       		.byte	108
 1546 00b6 04       		.byte	4
 1547 00b7 F1       		.byte	-15
 1548 00b8 28       		.byte	40
 1549 00b9 30       		.byte	48
 1550 00ba 38       		.byte	56
 1551 00bb 02       		.byte	2
 1552 00bc 16       		.byte	22
 1553 00bd 02       		.byte	2
 1554 00be 00       		.byte	0
 1555 00bf 00       		.byte	0
 1556 00c0 01       		.byte	1
 1557 00c1 B2       		.byte	-78
 1558 00c2 02       		.byte	2
 1559 00c3 FF       		.byte	-1
 1560 00c4 FF       		.byte	-1
 1561 00c5 01       		.byte	1
 1562 00c6 90       		.byte	-112
 1563 00c7 04       		.byte	4
 1564 00c8 09       		.byte	9
 1565 00c9 23       		.byte	35
 1566 00ca A1       		.byte	-95
 1567 00cb 35       		.byte	53
ARM GAS  /tmp/ccKYPvWI.s 			page 36


 1568 00cc 01       		.byte	1
 1569 00cd 6A       		.byte	106
 1570 00ce 02       		.byte	2
 1571 00cf 06       		.byte	6
 1572 00d0 00       		.byte	0
 1573 00d1 01       		.byte	1
 1574 00d2 60       		.byte	96
 1575 00d3 08       		.byte	8
 1576 00d4 00       		.byte	0
 1577 00d5 00       		.byte	0
 1578 00d6 00       		.byte	0
 1579 00d7 00       		.byte	0
 1580 00d8 00       		.byte	0
 1581 00d9 00       		.byte	0
 1582 00da 00       		.byte	0
 1583 00db 00       		.byte	0
 1584 00dc 00       		.byte	0
 1585 00dd 60       		.byte	96
 1586 00de 04       		.byte	4
 1587 00df 40       		.byte	64
 1588 00e0 00       		.byte	0
 1589 00e1 00       		.byte	0
 1590 00e2 00       		.byte	0
 1591 00e3 01       		.byte	1
 1592 00e4 62       		.byte	98
 1593 00e5 02       		.byte	2
 1594 00e6 00       		.byte	0
 1595 00e7 00       		.byte	0
 1596 00e8 00       		.byte	0
 1597 00e9 60       		.byte	96
 1598 00ea 04       		.byte	4
 1599 00eb 00       		.byte	0
 1600 00ec 40       		.byte	64
 1601 00ed 00       		.byte	0
 1602 00ee 00       		.byte	0
 1603              		.section	.rodata.dmpmemorydata,"a",%progbits
 1604              		.align	2
 1605              		.set	.LANCHOR0,. + 0
 1608              	dmpmemorydata:
 1609 0000 FB       		.byte	-5
 1610 0001 00       		.byte	0
 1611 0002 00       		.byte	0
 1612 0003 3E       		.byte	62
 1613 0004 00       		.byte	0
 1614 0005 0B       		.byte	11
 1615 0006 00       		.byte	0
 1616 0007 36       		.byte	54
 1617 0008 00       		.byte	0
 1618 0009 01       		.byte	1
 1619 000a 00       		.byte	0
 1620 000b 02       		.byte	2
 1621 000c 00       		.byte	0
 1622 000d 03       		.byte	3
 1623 000e 00       		.byte	0
 1624 000f 00       		.byte	0
 1625 0010 00       		.byte	0
 1626 0011 65       		.byte	101
ARM GAS  /tmp/ccKYPvWI.s 			page 37


 1627 0012 00       		.byte	0
 1628 0013 54       		.byte	84
 1629 0014 FF       		.byte	-1
 1630 0015 EF       		.byte	-17
 1631 0016 00       		.byte	0
 1632 0017 00       		.byte	0
 1633 0018 FA       		.byte	-6
 1634 0019 80       		.byte	-128
 1635 001a 00       		.byte	0
 1636 001b 0B       		.byte	11
 1637 001c 12       		.byte	18
 1638 001d 82       		.byte	-126
 1639 001e 00       		.byte	0
 1640 001f 01       		.byte	1
 1641 0020 00       		.byte	0
 1642 0021 02       		.byte	2
 1643 0022 00       		.byte	0
 1644 0023 00       		.byte	0
 1645 0024 00       		.byte	0
 1646 0025 00       		.byte	0
 1647 0026 00       		.byte	0
 1648 0027 00       		.byte	0
 1649 0028 00       		.byte	0
 1650 0029 00       		.byte	0
 1651 002a 00       		.byte	0
 1652 002b 00       		.byte	0
 1653 002c 00       		.byte	0
 1654 002d 00       		.byte	0
 1655 002e 00       		.byte	0
 1656 002f 00       		.byte	0
 1657 0030 00       		.byte	0
 1658 0031 28       		.byte	40
 1659 0032 00       		.byte	0
 1660 0033 00       		.byte	0
 1661 0034 FF       		.byte	-1
 1662 0035 FF       		.byte	-1
 1663 0036 45       		.byte	69
 1664 0037 81       		.byte	-127
 1665 0038 FF       		.byte	-1
 1666 0039 FF       		.byte	-1
 1667 003a FA       		.byte	-6
 1668 003b 72       		.byte	114
 1669 003c 00       		.byte	0
 1670 003d 00       		.byte	0
 1671 003e 00       		.byte	0
 1672 003f 00       		.byte	0
 1673 0040 00       		.byte	0
 1674 0041 00       		.byte	0
 1675 0042 03       		.byte	3
 1676 0043 E8       		.byte	-24
 1677 0044 00       		.byte	0
 1678 0045 00       		.byte	0
 1679 0046 00       		.byte	0
 1680 0047 01       		.byte	1
 1681 0048 00       		.byte	0
 1682 0049 01       		.byte	1
 1683 004a 7F       		.byte	127
ARM GAS  /tmp/ccKYPvWI.s 			page 38


 1684 004b FF       		.byte	-1
 1685 004c FF       		.byte	-1
 1686 004d FE       		.byte	-2
 1687 004e 80       		.byte	-128
 1688 004f 01       		.byte	1
 1689 0050 00       		.byte	0
 1690 0051 1B       		.byte	27
 1691 0052 00       		.byte	0
 1692 0053 00       		.byte	0
 1693 0054 00       		.byte	0
 1694 0055 00       		.byte	0
 1695 0056 00       		.byte	0
 1696 0057 00       		.byte	0
 1697 0058 00       		.byte	0
 1698 0059 00       		.byte	0
 1699 005a 00       		.byte	0
 1700 005b 00       		.byte	0
 1701 005c 00       		.byte	0
 1702 005d 00       		.byte	0
 1703 005e 00       		.byte	0
 1704 005f 00       		.byte	0
 1705 0060 00       		.byte	0
 1706 0061 3E       		.byte	62
 1707 0062 03       		.byte	3
 1708 0063 30       		.byte	48
 1709 0064 40       		.byte	64
 1710 0065 00       		.byte	0
 1711 0066 00       		.byte	0
 1712 0067 00       		.byte	0
 1713 0068 02       		.byte	2
 1714 0069 CA       		.byte	-54
 1715 006a E3       		.byte	-29
 1716 006b 09       		.byte	9
 1717 006c 3E       		.byte	62
 1718 006d 80       		.byte	-128
 1719 006e 00       		.byte	0
 1720 006f 00       		.byte	0
 1721 0070 20       		.byte	32
 1722 0071 00       		.byte	0
 1723 0072 00       		.byte	0
 1724 0073 00       		.byte	0
 1725 0074 00       		.byte	0
 1726 0075 00       		.byte	0
 1727 0076 00       		.byte	0
 1728 0077 00       		.byte	0
 1729 0078 40       		.byte	64
 1730 0079 00       		.byte	0
 1731 007a 00       		.byte	0
 1732 007b 00       		.byte	0
 1733 007c 60       		.byte	96
 1734 007d 00       		.byte	0
 1735 007e 00       		.byte	0
 1736 007f 00       		.byte	0
 1737 0080 41       		.byte	65
 1738 0081 FF       		.byte	-1
 1739 0082 00       		.byte	0
 1740 0083 00       		.byte	0
ARM GAS  /tmp/ccKYPvWI.s 			page 39


 1741 0084 00       		.byte	0
 1742 0085 00       		.byte	0
 1743 0086 0B       		.byte	11
 1744 0087 2A       		.byte	42
 1745 0088 00       		.byte	0
 1746 0089 00       		.byte	0
 1747 008a 16       		.byte	22
 1748 008b 55       		.byte	85
 1749 008c 00       		.byte	0
 1750 008d 00       		.byte	0
 1751 008e 21       		.byte	33
 1752 008f 82       		.byte	-126
 1753 0090 FD       		.byte	-3
 1754 0091 87       		.byte	-121
 1755 0092 26       		.byte	38
 1756 0093 50       		.byte	80
 1757 0094 FD       		.byte	-3
 1758 0095 80       		.byte	-128
 1759 0096 00       		.byte	0
 1760 0097 00       		.byte	0
 1761 0098 00       		.byte	0
 1762 0099 1F       		.byte	31
 1763 009a 00       		.byte	0
 1764 009b 00       		.byte	0
 1765 009c 00       		.byte	0
 1766 009d 05       		.byte	5
 1767 009e 80       		.byte	-128
 1768 009f 00       		.byte	0
 1769 00a0 00       		.byte	0
 1770 00a1 00       		.byte	0
 1771 00a2 00       		.byte	0
 1772 00a3 00       		.byte	0
 1773 00a4 00       		.byte	0
 1774 00a5 01       		.byte	1
 1775 00a6 00       		.byte	0
 1776 00a7 00       		.byte	0
 1777 00a8 00       		.byte	0
 1778 00a9 02       		.byte	2
 1779 00aa 00       		.byte	0
 1780 00ab 00       		.byte	0
 1781 00ac 00       		.byte	0
 1782 00ad 03       		.byte	3
 1783 00ae 00       		.byte	0
 1784 00af 00       		.byte	0
 1785 00b0 40       		.byte	64
 1786 00b1 00       		.byte	0
 1787 00b2 00       		.byte	0
 1788 00b3 00       		.byte	0
 1789 00b4 00       		.byte	0
 1790 00b5 00       		.byte	0
 1791 00b6 04       		.byte	4
 1792 00b7 6F       		.byte	111
 1793 00b8 00       		.byte	0
 1794 00b9 02       		.byte	2
 1795 00ba 65       		.byte	101
 1796 00bb 32       		.byte	50
 1797 00bc 00       		.byte	0
ARM GAS  /tmp/ccKYPvWI.s 			page 40


 1798 00bd 00       		.byte	0
 1799 00be 5E       		.byte	94
 1800 00bf C0       		.byte	-64
 1801 00c0 40       		.byte	64
 1802 00c1 00       		.byte	0
 1803 00c2 00       		.byte	0
 1804 00c3 00       		.byte	0
 1805 00c4 00       		.byte	0
 1806 00c5 00       		.byte	0
 1807 00c6 00       		.byte	0
 1808 00c7 00       		.byte	0
 1809 00c8 00       		.byte	0
 1810 00c9 00       		.byte	0
 1811 00ca 00       		.byte	0
 1812 00cb 00       		.byte	0
 1813 00cc 00       		.byte	0
 1814 00cd 00       		.byte	0
 1815 00ce 00       		.byte	0
 1816 00cf 00       		.byte	0
 1817 00d0 FB       		.byte	-5
 1818 00d1 8C       		.byte	-116
 1819 00d2 6F       		.byte	111
 1820 00d3 5D       		.byte	93
 1821 00d4 FD       		.byte	-3
 1822 00d5 5D       		.byte	93
 1823 00d6 08       		.byte	8
 1824 00d7 D9       		.byte	-39
 1825 00d8 00       		.byte	0
 1826 00d9 7C       		.byte	124
 1827 00da 73       		.byte	115
 1828 00db 3B       		.byte	59
 1829 00dc 00       		.byte	0
 1830 00dd 6C       		.byte	108
 1831 00de 12       		.byte	18
 1832 00df CC       		.byte	-52
 1833 00e0 32       		.byte	50
 1834 00e1 00       		.byte	0
 1835 00e2 13       		.byte	19
 1836 00e3 9D       		.byte	-99
 1837 00e4 32       		.byte	50
 1838 00e5 00       		.byte	0
 1839 00e6 D0       		.byte	-48
 1840 00e7 D6       		.byte	-42
 1841 00e8 32       		.byte	50
 1842 00e9 00       		.byte	0
 1843 00ea 08       		.byte	8
 1844 00eb 00       		.byte	0
 1845 00ec 40       		.byte	64
 1846 00ed 00       		.byte	0
 1847 00ee 01       		.byte	1
 1848 00ef F4       		.byte	-12
 1849 00f0 FF       		.byte	-1
 1850 00f1 E6       		.byte	-26
 1851 00f2 80       		.byte	-128
 1852 00f3 79       		.byte	121
 1853 00f4 02       		.byte	2
 1854 00f5 00       		.byte	0
ARM GAS  /tmp/ccKYPvWI.s 			page 41


 1855 00f6 00       		.byte	0
 1856 00f7 00       		.byte	0
 1857 00f8 00       		.byte	0
 1858 00f9 00       		.byte	0
 1859 00fa D0       		.byte	-48
 1860 00fb D6       		.byte	-42
 1861 00fc 00       		.byte	0
 1862 00fd 00       		.byte	0
 1863 00fe 27       		.byte	39
 1864 00ff 10       		.byte	16
 1865 0100 FB       		.byte	-5
 1866 0101 00       		.byte	0
 1867 0102 00       		.byte	0
 1868 0103 00       		.byte	0
 1869 0104 40       		.byte	64
 1870 0105 00       		.byte	0
 1871 0106 00       		.byte	0
 1872 0107 00       		.byte	0
 1873 0108 00       		.byte	0
 1874 0109 00       		.byte	0
 1875 010a 00       		.byte	0
 1876 010b 00       		.byte	0
 1877 010c 00       		.byte	0
 1878 010d 00       		.byte	0
 1879 010e 00       		.byte	0
 1880 010f 00       		.byte	0
 1881 0110 00       		.byte	0
 1882 0111 00       		.byte	0
 1883 0112 00       		.byte	0
 1884 0113 01       		.byte	1
 1885 0114 00       		.byte	0
 1886 0115 00       		.byte	0
 1887 0116 00       		.byte	0
 1888 0117 00       		.byte	0
 1889 0118 00       		.byte	0
 1890 0119 00       		.byte	0
 1891 011a 01       		.byte	1
 1892 011b 00       		.byte	0
 1893 011c 01       		.byte	1
 1894 011d 00       		.byte	0
 1895 011e 00       		.byte	0
 1896 011f 00       		.byte	0
 1897 0120 00       		.byte	0
 1898 0121 00       		.byte	0
 1899 0122 FA       		.byte	-6
 1900 0123 36       		.byte	54
 1901 0124 FF       		.byte	-1
 1902 0125 BC       		.byte	-68
 1903 0126 30       		.byte	48
 1904 0127 8E       		.byte	-114
 1905 0128 00       		.byte	0
 1906 0129 05       		.byte	5
 1907 012a FB       		.byte	-5
 1908 012b F0       		.byte	-16
 1909 012c FF       		.byte	-1
 1910 012d D9       		.byte	-39
 1911 012e 5B       		.byte	91
ARM GAS  /tmp/ccKYPvWI.s 			page 42


 1912 012f C8       		.byte	-56
 1913 0130 FF       		.byte	-1
 1914 0131 D0       		.byte	-48
 1915 0132 9A       		.byte	-102
 1916 0133 BE       		.byte	-66
 1917 0134 00       		.byte	0
 1918 0135 00       		.byte	0
 1919 0136 10       		.byte	16
 1920 0137 A9       		.byte	-87
 1921 0138 FF       		.byte	-1
 1922 0139 F4       		.byte	-12
 1923 013a 1E       		.byte	30
 1924 013b B2       		.byte	-78
 1925 013c 00       		.byte	0
 1926 013d CE       		.byte	-50
 1927 013e BB       		.byte	-69
 1928 013f F7       		.byte	-9
 1929 0140 00       		.byte	0
 1930 0141 00       		.byte	0
 1931 0142 00       		.byte	0
 1932 0143 01       		.byte	1
 1933 0144 00       		.byte	0
 1934 0145 00       		.byte	0
 1935 0146 00       		.byte	0
 1936 0147 04       		.byte	4
 1937 0148 00       		.byte	0
 1938 0149 02       		.byte	2
 1939 014a 00       		.byte	0
 1940 014b 02       		.byte	2
 1941 014c 02       		.byte	2
 1942 014d 00       		.byte	0
 1943 014e 00       		.byte	0
 1944 014f 0C       		.byte	12
 1945 0150 FF       		.byte	-1
 1946 0151 C2       		.byte	-62
 1947 0152 80       		.byte	-128
 1948 0153 00       		.byte	0
 1949 0154 00       		.byte	0
 1950 0155 01       		.byte	1
 1951 0156 80       		.byte	-128
 1952 0157 00       		.byte	0
 1953 0158 00       		.byte	0
 1954 0159 CF       		.byte	-49
 1955 015a 80       		.byte	-128
 1956 015b 00       		.byte	0
 1957 015c 40       		.byte	64
 1958 015d 00       		.byte	0
 1959 015e 00       		.byte	0
 1960 015f 00       		.byte	0
 1961 0160 00       		.byte	0
 1962 0161 00       		.byte	0
 1963 0162 00       		.byte	0
 1964 0163 01       		.byte	1
 1965 0164 00       		.byte	0
 1966 0165 00       		.byte	0
 1967 0166 00       		.byte	0
 1968 0167 00       		.byte	0
ARM GAS  /tmp/ccKYPvWI.s 			page 43


 1969 0168 00       		.byte	0
 1970 0169 00       		.byte	0
 1971 016a 06       		.byte	6
 1972 016b 00       		.byte	0
 1973 016c 00       		.byte	0
 1974 016d 00       		.byte	0
 1975 016e 00       		.byte	0
 1976 016f 14       		.byte	20
 1977 0170 00       		.byte	0
 1978 0171 00       		.byte	0
 1979 0172 00       		.byte	0
 1980 0173 00       		.byte	0
 1981 0174 00       		.byte	0
 1982 0175 00       		.byte	0
 1983 0176 00       		.byte	0
 1984 0177 00       		.byte	0
 1985 0178 00       		.byte	0
 1986 0179 00       		.byte	0
 1987 017a 00       		.byte	0
 1988 017b 00       		.byte	0
 1989 017c 00       		.byte	0
 1990 017d 00       		.byte	0
 1991 017e 00       		.byte	0
 1992 017f 00       		.byte	0
 1993 0180 00       		.byte	0
 1994 0181 00       		.byte	0
 1995 0182 00       		.byte	0
 1996 0183 00       		.byte	0
 1997 0184 00       		.byte	0
 1998 0185 00       		.byte	0
 1999 0186 00       		.byte	0
 2000 0187 00       		.byte	0
 2001 0188 00       		.byte	0
 2002 0189 00       		.byte	0
 2003 018a 00       		.byte	0
 2004 018b 00       		.byte	0
 2005 018c 00       		.byte	0
 2006 018d 00       		.byte	0
 2007 018e 00       		.byte	0
 2008 018f 00       		.byte	0
 2009 0190 00       		.byte	0
 2010 0191 00       		.byte	0
 2011 0192 00       		.byte	0
 2012 0193 00       		.byte	0
 2013 0194 00       		.byte	0
 2014 0195 00       		.byte	0
 2015 0196 00       		.byte	0
 2016 0197 00       		.byte	0
 2017 0198 00       		.byte	0
 2018 0199 00       		.byte	0
 2019 019a 00       		.byte	0
 2020 019b 00       		.byte	0
 2021 019c 00       		.byte	0
 2022 019d 00       		.byte	0
 2023 019e 00       		.byte	0
 2024 019f 00       		.byte	0
 2025 01a0 00       		.byte	0
ARM GAS  /tmp/ccKYPvWI.s 			page 44


 2026 01a1 00       		.byte	0
 2027 01a2 00       		.byte	0
 2028 01a3 00       		.byte	0
 2029 01a4 03       		.byte	3
 2030 01a5 3F       		.byte	63
 2031 01a6 68       		.byte	104
 2032 01a7 B6       		.byte	-74
 2033 01a8 79       		.byte	121
 2034 01a9 35       		.byte	53
 2035 01aa 28       		.byte	40
 2036 01ab BC       		.byte	-68
 2037 01ac C6       		.byte	-58
 2038 01ad 7E       		.byte	126
 2039 01ae D1       		.byte	-47
 2040 01af 6C       		.byte	108
 2041 01b0 80       		.byte	-128
 2042 01b1 00       		.byte	0
 2043 01b2 00       		.byte	0
 2044 01b3 00       		.byte	0
 2045 01b4 40       		.byte	64
 2046 01b5 00       		.byte	0
 2047 01b6 00       		.byte	0
 2048 01b7 00       		.byte	0
 2049 01b8 00       		.byte	0
 2050 01b9 00       		.byte	0
 2051 01ba B2       		.byte	-78
 2052 01bb 6A       		.byte	106
 2053 01bc 00       		.byte	0
 2054 01bd 00       		.byte	0
 2055 01be 00       		.byte	0
 2056 01bf 00       		.byte	0
 2057 01c0 00       		.byte	0
 2058 01c1 00       		.byte	0
 2059 01c2 00       		.byte	0
 2060 01c3 00       		.byte	0
 2061 01c4 00       		.byte	0
 2062 01c5 00       		.byte	0
 2063 01c6 00       		.byte	0
 2064 01c7 00       		.byte	0
 2065 01c8 00       		.byte	0
 2066 01c9 00       		.byte	0
 2067 01ca 3F       		.byte	63
 2068 01cb F0       		.byte	-16
 2069 01cc 00       		.byte	0
 2070 01cd 00       		.byte	0
 2071 01ce 00       		.byte	0
 2072 01cf 30       		.byte	48
 2073 01d0 00       		.byte	0
 2074 01d1 00       		.byte	0
 2075 01d2 00       		.byte	0
 2076 01d3 00       		.byte	0
 2077 01d4 00       		.byte	0
 2078 01d5 00       		.byte	0
 2079 01d6 00       		.byte	0
 2080 01d7 00       		.byte	0
 2081 01d8 00       		.byte	0
 2082 01d9 00       		.byte	0
ARM GAS  /tmp/ccKYPvWI.s 			page 45


 2083 01da 00       		.byte	0
 2084 01db 00       		.byte	0
 2085 01dc 00       		.byte	0
 2086 01dd 00       		.byte	0
 2087 01de 00       		.byte	0
 2088 01df 00       		.byte	0
 2089 01e0 00       		.byte	0
 2090 01e1 00       		.byte	0
 2091 01e2 00       		.byte	0
 2092 01e3 00       		.byte	0
 2093 01e4 00       		.byte	0
 2094 01e5 00       		.byte	0
 2095 01e6 00       		.byte	0
 2096 01e7 00       		.byte	0
 2097 01e8 00       		.byte	0
 2098 01e9 00       		.byte	0
 2099 01ea 00       		.byte	0
 2100 01eb 00       		.byte	0
 2101 01ec 00       		.byte	0
 2102 01ed 00       		.byte	0
 2103 01ee 00       		.byte	0
 2104 01ef 00       		.byte	0
 2105 01f0 00       		.byte	0
 2106 01f1 00       		.byte	0
 2107 01f2 25       		.byte	37
 2108 01f3 4D       		.byte	77
 2109 01f4 00       		.byte	0
 2110 01f5 2F       		.byte	47
 2111 01f6 70       		.byte	112
 2112 01f7 6D       		.byte	109
 2113 01f8 00       		.byte	0
 2114 01f9 00       		.byte	0
 2115 01fa 05       		.byte	5
 2116 01fb AE       		.byte	-82
 2117 01fc 00       		.byte	0
 2118 01fd 0C       		.byte	12
 2119 01fe 02       		.byte	2
 2120 01ff D0       		.byte	-48
 2121 0200 00       		.byte	0
 2122 0201 00       		.byte	0
 2123 0202 00       		.byte	0
 2124 0203 00       		.byte	0
 2125 0204 00       		.byte	0
 2126 0205 65       		.byte	101
 2127 0206 00       		.byte	0
 2128 0207 54       		.byte	84
 2129 0208 FF       		.byte	-1
 2130 0209 EF       		.byte	-17
 2131 020a 00       		.byte	0
 2132 020b 00       		.byte	0
 2133 020c 00       		.byte	0
 2134 020d 00       		.byte	0
 2135 020e 00       		.byte	0
 2136 020f 00       		.byte	0
 2137 0210 00       		.byte	0
 2138 0211 00       		.byte	0
 2139 0212 01       		.byte	1
ARM GAS  /tmp/ccKYPvWI.s 			page 46


 2140 0213 00       		.byte	0
 2141 0214 00       		.byte	0
 2142 0215 44       		.byte	68
 2143 0216 00       		.byte	0
 2144 0217 00       		.byte	0
 2145 0218 00       		.byte	0
 2146 0219 00       		.byte	0
 2147 021a 0C       		.byte	12
 2148 021b 00       		.byte	0
 2149 021c 00       		.byte	0
 2150 021d 00       		.byte	0
 2151 021e 01       		.byte	1
 2152 021f 00       		.byte	0
 2153 0220 00       		.byte	0
 2154 0221 00       		.byte	0
 2155 0222 00       		.byte	0
 2156 0223 00       		.byte	0
 2157 0224 00       		.byte	0
 2158 0225 65       		.byte	101
 2159 0226 00       		.byte	0
 2160 0227 00       		.byte	0
 2161 0228 00       		.byte	0
 2162 0229 54       		.byte	84
 2163 022a 00       		.byte	0
 2164 022b 00       		.byte	0
 2165 022c FF       		.byte	-1
 2166 022d EF       		.byte	-17
 2167 022e 00       		.byte	0
 2168 022f 00       		.byte	0
 2169 0230 00       		.byte	0
 2170 0231 00       		.byte	0
 2171 0232 00       		.byte	0
 2172 0233 00       		.byte	0
 2173 0234 00       		.byte	0
 2174 0235 00       		.byte	0
 2175 0236 00       		.byte	0
 2176 0237 00       		.byte	0
 2177 0238 00       		.byte	0
 2178 0239 00       		.byte	0
 2179 023a 00       		.byte	0
 2180 023b 00       		.byte	0
 2181 023c 00       		.byte	0
 2182 023d 00       		.byte	0
 2183 023e 00       		.byte	0
 2184 023f 00       		.byte	0
 2185 0240 40       		.byte	64
 2186 0241 00       		.byte	0
 2187 0242 00       		.byte	0
 2188 0243 00       		.byte	0
 2189 0244 00       		.byte	0
 2190 0245 00       		.byte	0
 2191 0246 00       		.byte	0
 2192 0247 00       		.byte	0
 2193 0248 00       		.byte	0
 2194 0249 00       		.byte	0
 2195 024a 00       		.byte	0
 2196 024b 00       		.byte	0
ARM GAS  /tmp/ccKYPvWI.s 			page 47


 2197 024c 00       		.byte	0
 2198 024d 00       		.byte	0
 2199 024e 00       		.byte	0
 2200 024f 00       		.byte	0
 2201 0250 40       		.byte	64
 2202 0251 00       		.byte	0
 2203 0252 00       		.byte	0
 2204 0253 00       		.byte	0
 2205 0254 00       		.byte	0
 2206 0255 00       		.byte	0
 2207 0256 00       		.byte	0
 2208 0257 00       		.byte	0
 2209 0258 00       		.byte	0
 2210 0259 00       		.byte	0
 2211 025a 00       		.byte	0
 2212 025b 00       		.byte	0
 2213 025c 00       		.byte	0
 2214 025d 00       		.byte	0
 2215 025e 00       		.byte	0
 2216 025f 00       		.byte	0
 2217 0260 00       		.byte	0
 2218 0261 00       		.byte	0
 2219 0262 00       		.byte	0
 2220 0263 01       		.byte	1
 2221 0264 00       		.byte	0
 2222 0265 00       		.byte	0
 2223 0266 00       		.byte	0
 2224 0267 02       		.byte	2
 2225 0268 00       		.byte	0
 2226 0269 00       		.byte	0
 2227 026a 00       		.byte	0
 2228 026b 00       		.byte	0
 2229 026c 00       		.byte	0
 2230 026d 00       		.byte	0
 2231 026e 00       		.byte	0
 2232 026f 00       		.byte	0
 2233 0270 00       		.byte	0
 2234 0271 00       		.byte	0
 2235 0272 00       		.byte	0
 2236 0273 00       		.byte	0
 2237 0274 00       		.byte	0
 2238 0275 00       		.byte	0
 2239 0276 00       		.byte	0
 2240 0277 00       		.byte	0
 2241 0278 00       		.byte	0
 2242 0279 00       		.byte	0
 2243 027a 00       		.byte	0
 2244 027b 00       		.byte	0
 2245 027c 00       		.byte	0
 2246 027d 00       		.byte	0
 2247 027e 00       		.byte	0
 2248 027f 00       		.byte	0
 2249 0280 00       		.byte	0
 2250 0281 00       		.byte	0
 2251 0282 00       		.byte	0
 2252 0283 00       		.byte	0
 2253 0284 00       		.byte	0
ARM GAS  /tmp/ccKYPvWI.s 			page 48


 2254 0285 00       		.byte	0
 2255 0286 00       		.byte	0
 2256 0287 00       		.byte	0
 2257 0288 00       		.byte	0
 2258 0289 00       		.byte	0
 2259 028a 00       		.byte	0
 2260 028b 00       		.byte	0
 2261 028c 00       		.byte	0
 2262 028d 00       		.byte	0
 2263 028e 00       		.byte	0
 2264 028f 00       		.byte	0
 2265 0290 00       		.byte	0
 2266 0291 1B       		.byte	27
 2267 0292 00       		.byte	0
 2268 0293 00       		.byte	0
 2269 0294 00       		.byte	0
 2270 0295 00       		.byte	0
 2271 0296 00       		.byte	0
 2272 0297 00       		.byte	0
 2273 0298 00       		.byte	0
 2274 0299 00       		.byte	0
 2275 029a 00       		.byte	0
 2276 029b 00       		.byte	0
 2277 029c 00       		.byte	0
 2278 029d 00       		.byte	0
 2279 029e 00       		.byte	0
 2280 029f 00       		.byte	0
 2281 02a0 00       		.byte	0
 2282 02a1 00       		.byte	0
 2283 02a2 00       		.byte	0
 2284 02a3 00       		.byte	0
 2285 02a4 00       		.byte	0
 2286 02a5 00       		.byte	0
 2287 02a6 00       		.byte	0
 2288 02a7 00       		.byte	0
 2289 02a8 00       		.byte	0
 2290 02a9 00       		.byte	0
 2291 02aa 00       		.byte	0
 2292 02ab 00       		.byte	0
 2293 02ac 00       		.byte	0
 2294 02ad 00       		.byte	0
 2295 02ae 00       		.byte	0
 2296 02af 00       		.byte	0
 2297 02b0 00       		.byte	0
 2298 02b1 00       		.byte	0
 2299 02b2 00       		.byte	0
 2300 02b3 00       		.byte	0
 2301 02b4 00       		.byte	0
 2302 02b5 00       		.byte	0
 2303 02b6 00       		.byte	0
 2304 02b7 00       		.byte	0
 2305 02b8 00       		.byte	0
 2306 02b9 00       		.byte	0
 2307 02ba 00       		.byte	0
 2308 02bb 00       		.byte	0
 2309 02bc 40       		.byte	64
 2310 02bd 00       		.byte	0
ARM GAS  /tmp/ccKYPvWI.s 			page 49


 2311 02be 00       		.byte	0
 2312 02bf 00       		.byte	0
 2313 02c0 00       		.byte	0
 2314 02c1 1B       		.byte	27
 2315 02c2 00       		.byte	0
 2316 02c3 00       		.byte	0
 2317 02c4 00       		.byte	0
 2318 02c5 00       		.byte	0
 2319 02c6 00       		.byte	0
 2320 02c7 00       		.byte	0
 2321 02c8 00       		.byte	0
 2322 02c9 00       		.byte	0
 2323 02ca 00       		.byte	0
 2324 02cb 00       		.byte	0
 2325 02cc 00       		.byte	0
 2326 02cd 00       		.byte	0
 2327 02ce 00       		.byte	0
 2328 02cf 00       		.byte	0
 2329 02d0 00       		.byte	0
 2330 02d1 00       		.byte	0
 2331 02d2 00       		.byte	0
 2332 02d3 00       		.byte	0
 2333 02d4 00       		.byte	0
 2334 02d5 00       		.byte	0
 2335 02d6 00       		.byte	0
 2336 02d7 00       		.byte	0
 2337 02d8 00       		.byte	0
 2338 02d9 00       		.byte	0
 2339 02da 00       		.byte	0
 2340 02db 00       		.byte	0
 2341 02dc 00       		.byte	0
 2342 02dd 00       		.byte	0
 2343 02de 00       		.byte	0
 2344 02df 00       		.byte	0
 2345 02e0 00       		.byte	0
 2346 02e1 00       		.byte	0
 2347 02e2 00       		.byte	0
 2348 02e3 00       		.byte	0
 2349 02e4 00       		.byte	0
 2350 02e5 00       		.byte	0
 2351 02e6 00       		.byte	0
 2352 02e7 00       		.byte	0
 2353 02e8 00       		.byte	0
 2354 02e9 00       		.byte	0
 2355 02ea 00       		.byte	0
 2356 02eb 00       		.byte	0
 2357 02ec 00       		.byte	0
 2358 02ed 00       		.byte	0
 2359 02ee 00       		.byte	0
 2360 02ef 00       		.byte	0
 2361 02f0 00       		.byte	0
 2362 02f1 00       		.byte	0
 2363 02f2 00       		.byte	0
 2364 02f3 00       		.byte	0
 2365 02f4 00       		.byte	0
 2366 02f5 00       		.byte	0
 2367 02f6 00       		.byte	0
ARM GAS  /tmp/ccKYPvWI.s 			page 50


 2368 02f7 00       		.byte	0
 2369 02f8 00       		.byte	0
 2370 02f9 00       		.byte	0
 2371 02fa 00       		.byte	0
 2372 02fb 00       		.byte	0
 2373 02fc 00       		.byte	0
 2374 02fd 00       		.byte	0
 2375 02fe 00       		.byte	0
 2376 02ff 00       		.byte	0
 2377 0300 D8       		.byte	-40
 2378 0301 DC       		.byte	-36
 2379 0302 BA       		.byte	-70
 2380 0303 A2       		.byte	-94
 2381 0304 F1       		.byte	-15
 2382 0305 DE       		.byte	-34
 2383 0306 B2       		.byte	-78
 2384 0307 B8       		.byte	-72
 2385 0308 B4       		.byte	-76
 2386 0309 A8       		.byte	-88
 2387 030a 81       		.byte	-127
 2388 030b 91       		.byte	-111
 2389 030c F7       		.byte	-9
 2390 030d 4A       		.byte	74
 2391 030e 90       		.byte	-112
 2392 030f 7F       		.byte	127
 2393 0310 91       		.byte	-111
 2394 0311 6A       		.byte	106
 2395 0312 F3       		.byte	-13
 2396 0313 F9       		.byte	-7
 2397 0314 DB       		.byte	-37
 2398 0315 A8       		.byte	-88
 2399 0316 F9       		.byte	-7
 2400 0317 B0       		.byte	-80
 2401 0318 BA       		.byte	-70
 2402 0319 A0       		.byte	-96
 2403 031a 80       		.byte	-128
 2404 031b F2       		.byte	-14
 2405 031c CE       		.byte	-50
 2406 031d 81       		.byte	-127
 2407 031e F3       		.byte	-13
 2408 031f C2       		.byte	-62
 2409 0320 F1       		.byte	-15
 2410 0321 C1       		.byte	-63
 2411 0322 F2       		.byte	-14
 2412 0323 C3       		.byte	-61
 2413 0324 F3       		.byte	-13
 2414 0325 CC       		.byte	-52
 2415 0326 A2       		.byte	-94
 2416 0327 B2       		.byte	-78
 2417 0328 80       		.byte	-128
 2418 0329 F1       		.byte	-15
 2419 032a C6       		.byte	-58
 2420 032b D8       		.byte	-40
 2421 032c 80       		.byte	-128
 2422 032d BA       		.byte	-70
 2423 032e A7       		.byte	-89
 2424 032f DF       		.byte	-33
ARM GAS  /tmp/ccKYPvWI.s 			page 51


 2425 0330 DF       		.byte	-33
 2426 0331 DF       		.byte	-33
 2427 0332 F2       		.byte	-14
 2428 0333 A7       		.byte	-89
 2429 0334 C3       		.byte	-61
 2430 0335 CB       		.byte	-53
 2431 0336 C5       		.byte	-59
 2432 0337 B6       		.byte	-74
 2433 0338 F0       		.byte	-16
 2434 0339 87       		.byte	-121
 2435 033a A2       		.byte	-94
 2436 033b 94       		.byte	-108
 2437 033c 24       		.byte	36
 2438 033d 48       		.byte	72
 2439 033e 70       		.byte	112
 2440 033f 3C       		.byte	60
 2441 0340 95       		.byte	-107
 2442 0341 40       		.byte	64
 2443 0342 68       		.byte	104
 2444 0343 34       		.byte	52
 2445 0344 58       		.byte	88
 2446 0345 9B       		.byte	-101
 2447 0346 78       		.byte	120
 2448 0347 A2       		.byte	-94
 2449 0348 F1       		.byte	-15
 2450 0349 83       		.byte	-125
 2451 034a 92       		.byte	-110
 2452 034b 2D       		.byte	45
 2453 034c 55       		.byte	85
 2454 034d 7D       		.byte	125
 2455 034e D8       		.byte	-40
 2456 034f B1       		.byte	-79
 2457 0350 B4       		.byte	-76
 2458 0351 B8       		.byte	-72
 2459 0352 A1       		.byte	-95
 2460 0353 D0       		.byte	-48
 2461 0354 91       		.byte	-111
 2462 0355 80       		.byte	-128
 2463 0356 F2       		.byte	-14
 2464 0357 70       		.byte	112
 2465 0358 F3       		.byte	-13
 2466 0359 70       		.byte	112
 2467 035a F2       		.byte	-14
 2468 035b 7C       		.byte	124
 2469 035c 80       		.byte	-128
 2470 035d A8       		.byte	-88
 2471 035e F1       		.byte	-15
 2472 035f 01       		.byte	1
 2473 0360 B0       		.byte	-80
 2474 0361 98       		.byte	-104
 2475 0362 87       		.byte	-121
 2476 0363 D9       		.byte	-39
 2477 0364 43       		.byte	67
 2478 0365 D8       		.byte	-40
 2479 0366 86       		.byte	-122
 2480 0367 C9       		.byte	-55
 2481 0368 88       		.byte	-120
ARM GAS  /tmp/ccKYPvWI.s 			page 52


 2482 0369 BA       		.byte	-70
 2483 036a A1       		.byte	-95
 2484 036b F2       		.byte	-14
 2485 036c 0E       		.byte	14
 2486 036d B8       		.byte	-72
 2487 036e 97       		.byte	-105
 2488 036f 80       		.byte	-128
 2489 0370 F1       		.byte	-15
 2490 0371 A9       		.byte	-87
 2491 0372 DF       		.byte	-33
 2492 0373 DF       		.byte	-33
 2493 0374 DF       		.byte	-33
 2494 0375 AA       		.byte	-86
 2495 0376 DF       		.byte	-33
 2496 0377 DF       		.byte	-33
 2497 0378 DF       		.byte	-33
 2498 0379 F2       		.byte	-14
 2499 037a AA       		.byte	-86
 2500 037b C5       		.byte	-59
 2501 037c CD       		.byte	-51
 2502 037d C7       		.byte	-57
 2503 037e A9       		.byte	-87
 2504 037f 0C       		.byte	12
 2505 0380 C9       		.byte	-55
 2506 0381 2C       		.byte	44
 2507 0382 97       		.byte	-105
 2508 0383 97       		.byte	-105
 2509 0384 97       		.byte	-105
 2510 0385 97       		.byte	-105
 2511 0386 F1       		.byte	-15
 2512 0387 A9       		.byte	-87
 2513 0388 89       		.byte	-119
 2514 0389 26       		.byte	38
 2515 038a 46       		.byte	70
 2516 038b 66       		.byte	102
 2517 038c B0       		.byte	-80
 2518 038d B4       		.byte	-76
 2519 038e BA       		.byte	-70
 2520 038f 80       		.byte	-128
 2521 0390 AC       		.byte	-84
 2522 0391 DE       		.byte	-34
 2523 0392 F2       		.byte	-14
 2524 0393 CA       		.byte	-54
 2525 0394 F1       		.byte	-15
 2526 0395 B2       		.byte	-78
 2527 0396 8C       		.byte	-116
 2528 0397 02       		.byte	2
 2529 0398 A9       		.byte	-87
 2530 0399 B6       		.byte	-74
 2531 039a 98       		.byte	-104
 2532 039b 00       		.byte	0
 2533 039c 89       		.byte	-119
 2534 039d 0E       		.byte	14
 2535 039e 16       		.byte	22
 2536 039f 1E       		.byte	30
 2537 03a0 B8       		.byte	-72
 2538 03a1 A9       		.byte	-87
ARM GAS  /tmp/ccKYPvWI.s 			page 53


 2539 03a2 B4       		.byte	-76
 2540 03a3 99       		.byte	-103
 2541 03a4 2C       		.byte	44
 2542 03a5 54       		.byte	84
 2543 03a6 7C       		.byte	124
 2544 03a7 B0       		.byte	-80
 2545 03a8 8A       		.byte	-118
 2546 03a9 A8       		.byte	-88
 2547 03aa 96       		.byte	-106
 2548 03ab 36       		.byte	54
 2549 03ac 56       		.byte	86
 2550 03ad 76       		.byte	118
 2551 03ae F1       		.byte	-15
 2552 03af B9       		.byte	-71
 2553 03b0 AF       		.byte	-81
 2554 03b1 B4       		.byte	-76
 2555 03b2 B0       		.byte	-80
 2556 03b3 83       		.byte	-125
 2557 03b4 C0       		.byte	-64
 2558 03b5 B8       		.byte	-72
 2559 03b6 A8       		.byte	-88
 2560 03b7 97       		.byte	-105
 2561 03b8 11       		.byte	17
 2562 03b9 B1       		.byte	-79
 2563 03ba 8F       		.byte	-113
 2564 03bb 98       		.byte	-104
 2565 03bc B9       		.byte	-71
 2566 03bd AF       		.byte	-81
 2567 03be F0       		.byte	-16
 2568 03bf 24       		.byte	36
 2569 03c0 08       		.byte	8
 2570 03c1 44       		.byte	68
 2571 03c2 10       		.byte	16
 2572 03c3 64       		.byte	100
 2573 03c4 18       		.byte	24
 2574 03c5 F1       		.byte	-15
 2575 03c6 A3       		.byte	-93
 2576 03c7 29       		.byte	41
 2577 03c8 55       		.byte	85
 2578 03c9 7D       		.byte	125
 2579 03ca AF       		.byte	-81
 2580 03cb 83       		.byte	-125
 2581 03cc B5       		.byte	-75
 2582 03cd 93       		.byte	-109
 2583 03ce AF       		.byte	-81
 2584 03cf F0       		.byte	-16
 2585 03d0 00       		.byte	0
 2586 03d1 28       		.byte	40
 2587 03d2 50       		.byte	80
 2588 03d3 F1       		.byte	-15
 2589 03d4 A3       		.byte	-93
 2590 03d5 86       		.byte	-122
 2591 03d6 9F       		.byte	-97
 2592 03d7 61       		.byte	97
 2593 03d8 A6       		.byte	-90
 2594 03d9 DA       		.byte	-38
 2595 03da DE       		.byte	-34
ARM GAS  /tmp/ccKYPvWI.s 			page 54


 2596 03db DF       		.byte	-33
 2597 03dc D9       		.byte	-39
 2598 03dd FA       		.byte	-6
 2599 03de A3       		.byte	-93
 2600 03df 86       		.byte	-122
 2601 03e0 96       		.byte	-106
 2602 03e1 DB       		.byte	-37
 2603 03e2 31       		.byte	49
 2604 03e3 A6       		.byte	-90
 2605 03e4 D9       		.byte	-39
 2606 03e5 F8       		.byte	-8
 2607 03e6 DF       		.byte	-33
 2608 03e7 BA       		.byte	-70
 2609 03e8 A6       		.byte	-90
 2610 03e9 8F       		.byte	-113
 2611 03ea C2       		.byte	-62
 2612 03eb C5       		.byte	-59
 2613 03ec C7       		.byte	-57
 2614 03ed B2       		.byte	-78
 2615 03ee 8C       		.byte	-116
 2616 03ef C1       		.byte	-63
 2617 03f0 B8       		.byte	-72
 2618 03f1 A2       		.byte	-94
 2619 03f2 DF       		.byte	-33
 2620 03f3 DF       		.byte	-33
 2621 03f4 DF       		.byte	-33
 2622 03f5 A3       		.byte	-93
 2623 03f6 DF       		.byte	-33
 2624 03f7 DF       		.byte	-33
 2625 03f8 DF       		.byte	-33
 2626 03f9 D8       		.byte	-40
 2627 03fa D8       		.byte	-40
 2628 03fb F1       		.byte	-15
 2629 03fc B8       		.byte	-72
 2630 03fd A8       		.byte	-88
 2631 03fe B2       		.byte	-78
 2632 03ff 86       		.byte	-122
 2633 0400 B4       		.byte	-76
 2634 0401 98       		.byte	-104
 2635 0402 0D       		.byte	13
 2636 0403 35       		.byte	53
 2637 0404 5D       		.byte	93
 2638 0405 B8       		.byte	-72
 2639 0406 AA       		.byte	-86
 2640 0407 98       		.byte	-104
 2641 0408 B0       		.byte	-80
 2642 0409 87       		.byte	-121
 2643 040a 2D       		.byte	45
 2644 040b 35       		.byte	53
 2645 040c 3D       		.byte	61
 2646 040d B2       		.byte	-78
 2647 040e B6       		.byte	-74
 2648 040f BA       		.byte	-70
 2649 0410 AF       		.byte	-81
 2650 0411 8C       		.byte	-116
 2651 0412 96       		.byte	-106
 2652 0413 19       		.byte	25
ARM GAS  /tmp/ccKYPvWI.s 			page 55


 2653 0414 8F       		.byte	-113
 2654 0415 9F       		.byte	-97
 2655 0416 A7       		.byte	-89
 2656 0417 0E       		.byte	14
 2657 0418 16       		.byte	22
 2658 0419 1E       		.byte	30
 2659 041a B4       		.byte	-76
 2660 041b 9A       		.byte	-102
 2661 041c B8       		.byte	-72
 2662 041d AA       		.byte	-86
 2663 041e 87       		.byte	-121
 2664 041f 2C       		.byte	44
 2665 0420 54       		.byte	84
 2666 0421 7C       		.byte	124
 2667 0422 B9       		.byte	-71
 2668 0423 A3       		.byte	-93
 2669 0424 DE       		.byte	-34
 2670 0425 DF       		.byte	-33
 2671 0426 DF       		.byte	-33
 2672 0427 A3       		.byte	-93
 2673 0428 B1       		.byte	-79
 2674 0429 80       		.byte	-128
 2675 042a F2       		.byte	-14
 2676 042b C4       		.byte	-60
 2677 042c CD       		.byte	-51
 2678 042d C9       		.byte	-55
 2679 042e F1       		.byte	-15
 2680 042f B8       		.byte	-72
 2681 0430 A9       		.byte	-87
 2682 0431 B4       		.byte	-76
 2683 0432 99       		.byte	-103
 2684 0433 83       		.byte	-125
 2685 0434 0D       		.byte	13
 2686 0435 35       		.byte	53
 2687 0436 5D       		.byte	93
 2688 0437 89       		.byte	-119
 2689 0438 B9       		.byte	-71
 2690 0439 A3       		.byte	-93
 2691 043a 2D       		.byte	45
 2692 043b 55       		.byte	85
 2693 043c 7D       		.byte	125
 2694 043d B5       		.byte	-75
 2695 043e 93       		.byte	-109
 2696 043f A3       		.byte	-93
 2697 0440 0E       		.byte	14
 2698 0441 16       		.byte	22
 2699 0442 1E       		.byte	30
 2700 0443 A9       		.byte	-87
 2701 0444 2C       		.byte	44
 2702 0445 54       		.byte	84
 2703 0446 7C       		.byte	124
 2704 0447 B8       		.byte	-72
 2705 0448 B4       		.byte	-76
 2706 0449 B0       		.byte	-80
 2707 044a F1       		.byte	-15
 2708 044b 97       		.byte	-105
 2709 044c 83       		.byte	-125
ARM GAS  /tmp/ccKYPvWI.s 			page 56


 2710 044d A8       		.byte	-88
 2711 044e 11       		.byte	17
 2712 044f 84       		.byte	-124
 2713 0450 A5       		.byte	-91
 2714 0451 09       		.byte	9
 2715 0452 98       		.byte	-104
 2716 0453 A3       		.byte	-93
 2717 0454 83       		.byte	-125
 2718 0455 F0       		.byte	-16
 2719 0456 DA       		.byte	-38
 2720 0457 24       		.byte	36
 2721 0458 08       		.byte	8
 2722 0459 44       		.byte	68
 2723 045a 10       		.byte	16
 2724 045b 64       		.byte	100
 2725 045c 18       		.byte	24
 2726 045d D8       		.byte	-40
 2727 045e F1       		.byte	-15
 2728 045f A5       		.byte	-91
 2729 0460 29       		.byte	41
 2730 0461 55       		.byte	85
 2731 0462 7D       		.byte	125
 2732 0463 A5       		.byte	-91
 2733 0464 85       		.byte	-123
 2734 0465 95       		.byte	-107
 2735 0466 02       		.byte	2
 2736 0467 1A       		.byte	26
 2737 0468 2E       		.byte	46
 2738 0469 3A       		.byte	58
 2739 046a 56       		.byte	86
 2740 046b 5A       		.byte	90
 2741 046c 40       		.byte	64
 2742 046d 48       		.byte	72
 2743 046e F9       		.byte	-7
 2744 046f F3       		.byte	-13
 2745 0470 A3       		.byte	-93
 2746 0471 D9       		.byte	-39
 2747 0472 F8       		.byte	-8
 2748 0473 F0       		.byte	-16
 2749 0474 98       		.byte	-104
 2750 0475 83       		.byte	-125
 2751 0476 24       		.byte	36
 2752 0477 08       		.byte	8
 2753 0478 44       		.byte	68
 2754 0479 10       		.byte	16
 2755 047a 64       		.byte	100
 2756 047b 18       		.byte	24
 2757 047c 97       		.byte	-105
 2758 047d 82       		.byte	-126
 2759 047e A8       		.byte	-88
 2760 047f F1       		.byte	-15
 2761 0480 11       		.byte	17
 2762 0481 F0       		.byte	-16
 2763 0482 98       		.byte	-104
 2764 0483 A2       		.byte	-94
 2765 0484 24       		.byte	36
 2766 0485 08       		.byte	8
ARM GAS  /tmp/ccKYPvWI.s 			page 57


 2767 0486 44       		.byte	68
 2768 0487 10       		.byte	16
 2769 0488 64       		.byte	100
 2770 0489 18       		.byte	24
 2771 048a DA       		.byte	-38
 2772 048b F3       		.byte	-13
 2773 048c DE       		.byte	-34
 2774 048d D8       		.byte	-40
 2775 048e 83       		.byte	-125
 2776 048f A5       		.byte	-91
 2777 0490 94       		.byte	-108
 2778 0491 01       		.byte	1
 2779 0492 D9       		.byte	-39
 2780 0493 A3       		.byte	-93
 2781 0494 02       		.byte	2
 2782 0495 F1       		.byte	-15
 2783 0496 A2       		.byte	-94
 2784 0497 C3       		.byte	-61
 2785 0498 C5       		.byte	-59
 2786 0499 C7       		.byte	-57
 2787 049a D8       		.byte	-40
 2788 049b F1       		.byte	-15
 2789 049c 84       		.byte	-124
 2790 049d 92       		.byte	-110
 2791 049e A2       		.byte	-94
 2792 049f 4D       		.byte	77
 2793 04a0 DA       		.byte	-38
 2794 04a1 2A       		.byte	42
 2795 04a2 D8       		.byte	-40
 2796 04a3 48       		.byte	72
 2797 04a4 69       		.byte	105
 2798 04a5 D9       		.byte	-39
 2799 04a6 2A       		.byte	42
 2800 04a7 D8       		.byte	-40
 2801 04a8 68       		.byte	104
 2802 04a9 55       		.byte	85
 2803 04aa DA       		.byte	-38
 2804 04ab 32       		.byte	50
 2805 04ac D8       		.byte	-40
 2806 04ad 50       		.byte	80
 2807 04ae 71       		.byte	113
 2808 04af D9       		.byte	-39
 2809 04b0 32       		.byte	50
 2810 04b1 D8       		.byte	-40
 2811 04b2 70       		.byte	112
 2812 04b3 5D       		.byte	93
 2813 04b4 DA       		.byte	-38
 2814 04b5 3A       		.byte	58
 2815 04b6 D8       		.byte	-40
 2816 04b7 58       		.byte	88
 2817 04b8 79       		.byte	121
 2818 04b9 D9       		.byte	-39
 2819 04ba 3A       		.byte	58
 2820 04bb D8       		.byte	-40
 2821 04bc 78       		.byte	120
 2822 04bd 93       		.byte	-109
 2823 04be A3       		.byte	-93
ARM GAS  /tmp/ccKYPvWI.s 			page 58


 2824 04bf 4D       		.byte	77
 2825 04c0 DA       		.byte	-38
 2826 04c1 2A       		.byte	42
 2827 04c2 D8       		.byte	-40
 2828 04c3 48       		.byte	72
 2829 04c4 69       		.byte	105
 2830 04c5 D9       		.byte	-39
 2831 04c6 2A       		.byte	42
 2832 04c7 D8       		.byte	-40
 2833 04c8 68       		.byte	104
 2834 04c9 55       		.byte	85
 2835 04ca DA       		.byte	-38
 2836 04cb 32       		.byte	50
 2837 04cc D8       		.byte	-40
 2838 04cd 50       		.byte	80
 2839 04ce 71       		.byte	113
 2840 04cf D9       		.byte	-39
 2841 04d0 32       		.byte	50
 2842 04d1 D8       		.byte	-40
 2843 04d2 70       		.byte	112
 2844 04d3 5D       		.byte	93
 2845 04d4 DA       		.byte	-38
 2846 04d5 3A       		.byte	58
 2847 04d6 D8       		.byte	-40
 2848 04d7 58       		.byte	88
 2849 04d8 79       		.byte	121
 2850 04d9 D9       		.byte	-39
 2851 04da 3A       		.byte	58
 2852 04db D8       		.byte	-40
 2853 04dc 78       		.byte	120
 2854 04dd A8       		.byte	-88
 2855 04de 8A       		.byte	-118
 2856 04df 9A       		.byte	-102
 2857 04e0 F0       		.byte	-16
 2858 04e1 28       		.byte	40
 2859 04e2 50       		.byte	80
 2860 04e3 78       		.byte	120
 2861 04e4 9E       		.byte	-98
 2862 04e5 F3       		.byte	-13
 2863 04e6 88       		.byte	-120
 2864 04e7 18       		.byte	24
 2865 04e8 F1       		.byte	-15
 2866 04e9 9F       		.byte	-97
 2867 04ea 1D       		.byte	29
 2868 04eb 98       		.byte	-104
 2869 04ec A8       		.byte	-88
 2870 04ed D9       		.byte	-39
 2871 04ee 08       		.byte	8
 2872 04ef D8       		.byte	-40
 2873 04f0 C8       		.byte	-56
 2874 04f1 9F       		.byte	-97
 2875 04f2 12       		.byte	18
 2876 04f3 9E       		.byte	-98
 2877 04f4 F3       		.byte	-13
 2878 04f5 15       		.byte	21
 2879 04f6 A8       		.byte	-88
 2880 04f7 DA       		.byte	-38
ARM GAS  /tmp/ccKYPvWI.s 			page 59


 2881 04f8 12       		.byte	18
 2882 04f9 10       		.byte	16
 2883 04fa D8       		.byte	-40
 2884 04fb F1       		.byte	-15
 2885 04fc AF       		.byte	-81
 2886 04fd C8       		.byte	-56
 2887 04fe 97       		.byte	-105
 2888 04ff 87       		.byte	-121
 2889 0500 34       		.byte	52
 2890 0501 B5       		.byte	-75
 2891 0502 B9       		.byte	-71
 2892 0503 94       		.byte	-108
 2893 0504 A4       		.byte	-92
 2894 0505 21       		.byte	33
 2895 0506 F3       		.byte	-13
 2896 0507 D9       		.byte	-39
 2897 0508 22       		.byte	34
 2898 0509 D8       		.byte	-40
 2899 050a F2       		.byte	-14
 2900 050b 2D       		.byte	45
 2901 050c F3       		.byte	-13
 2902 050d D9       		.byte	-39
 2903 050e 2A       		.byte	42
 2904 050f D8       		.byte	-40
 2905 0510 F2       		.byte	-14
 2906 0511 35       		.byte	53
 2907 0512 F3       		.byte	-13
 2908 0513 D9       		.byte	-39
 2909 0514 32       		.byte	50
 2910 0515 D8       		.byte	-40
 2911 0516 81       		.byte	-127
 2912 0517 A4       		.byte	-92
 2913 0518 60       		.byte	96
 2914 0519 60       		.byte	96
 2915 051a 61       		.byte	97
 2916 051b D9       		.byte	-39
 2917 051c 61       		.byte	97
 2918 051d D8       		.byte	-40
 2919 051e 6C       		.byte	108
 2920 051f 68       		.byte	104
 2921 0520 69       		.byte	105
 2922 0521 D9       		.byte	-39
 2923 0522 69       		.byte	105
 2924 0523 D8       		.byte	-40
 2925 0524 74       		.byte	116
 2926 0525 70       		.byte	112
 2927 0526 71       		.byte	113
 2928 0527 D9       		.byte	-39
 2929 0528 71       		.byte	113
 2930 0529 D8       		.byte	-40
 2931 052a B1       		.byte	-79
 2932 052b A3       		.byte	-93
 2933 052c 84       		.byte	-124
 2934 052d 19       		.byte	25
 2935 052e 3D       		.byte	61
 2936 052f 5D       		.byte	93
 2937 0530 A3       		.byte	-93
ARM GAS  /tmp/ccKYPvWI.s 			page 60


 2938 0531 83       		.byte	-125
 2939 0532 1A       		.byte	26
 2940 0533 3E       		.byte	62
 2941 0534 5E       		.byte	94
 2942 0535 93       		.byte	-109
 2943 0536 10       		.byte	16
 2944 0537 30       		.byte	48
 2945 0538 81       		.byte	-127
 2946 0539 10       		.byte	16
 2947 053a 11       		.byte	17
 2948 053b B8       		.byte	-72
 2949 053c B0       		.byte	-80
 2950 053d AF       		.byte	-81
 2951 053e 8F       		.byte	-113
 2952 053f 94       		.byte	-108
 2953 0540 F2       		.byte	-14
 2954 0541 DA       		.byte	-38
 2955 0542 3E       		.byte	62
 2956 0543 D8       		.byte	-40
 2957 0544 B4       		.byte	-76
 2958 0545 9A       		.byte	-102
 2959 0546 A8       		.byte	-88
 2960 0547 87       		.byte	-121
 2961 0548 29       		.byte	41
 2962 0549 DA       		.byte	-38
 2963 054a F8       		.byte	-8
 2964 054b D8       		.byte	-40
 2965 054c 87       		.byte	-121
 2966 054d 9A       		.byte	-102
 2967 054e 35       		.byte	53
 2968 054f DA       		.byte	-38
 2969 0550 F8       		.byte	-8
 2970 0551 D8       		.byte	-40
 2971 0552 87       		.byte	-121
 2972 0553 9A       		.byte	-102
 2973 0554 3D       		.byte	61
 2974 0555 DA       		.byte	-38
 2975 0556 F8       		.byte	-8
 2976 0557 D8       		.byte	-40
 2977 0558 B1       		.byte	-79
 2978 0559 B9       		.byte	-71
 2979 055a A4       		.byte	-92
 2980 055b 98       		.byte	-104
 2981 055c 85       		.byte	-123
 2982 055d 02       		.byte	2
 2983 055e 2E       		.byte	46
 2984 055f 56       		.byte	86
 2985 0560 A5       		.byte	-91
 2986 0561 81       		.byte	-127
 2987 0562 00       		.byte	0
 2988 0563 0C       		.byte	12
 2989 0564 14       		.byte	20
 2990 0565 A3       		.byte	-93
 2991 0566 97       		.byte	-105
 2992 0567 B0       		.byte	-80
 2993 0568 8A       		.byte	-118
 2994 0569 F1       		.byte	-15
ARM GAS  /tmp/ccKYPvWI.s 			page 61


 2995 056a 2D       		.byte	45
 2996 056b D9       		.byte	-39
 2997 056c 28       		.byte	40
 2998 056d D8       		.byte	-40
 2999 056e 4D       		.byte	77
 3000 056f D9       		.byte	-39
 3001 0570 48       		.byte	72
 3002 0571 D8       		.byte	-40
 3003 0572 6D       		.byte	109
 3004 0573 D9       		.byte	-39
 3005 0574 68       		.byte	104
 3006 0575 D8       		.byte	-40
 3007 0576 B1       		.byte	-79
 3008 0577 84       		.byte	-124
 3009 0578 0D       		.byte	13
 3010 0579 DA       		.byte	-38
 3011 057a 0E       		.byte	14
 3012 057b D8       		.byte	-40
 3013 057c A3       		.byte	-93
 3014 057d 29       		.byte	41
 3015 057e 83       		.byte	-125
 3016 057f DA       		.byte	-38
 3017 0580 2C       		.byte	44
 3018 0581 0E       		.byte	14
 3019 0582 D8       		.byte	-40
 3020 0583 A3       		.byte	-93
 3021 0584 84       		.byte	-124
 3022 0585 49       		.byte	73
 3023 0586 83       		.byte	-125
 3024 0587 DA       		.byte	-38
 3025 0588 2C       		.byte	44
 3026 0589 4C       		.byte	76
 3027 058a 0E       		.byte	14
 3028 058b D8       		.byte	-40
 3029 058c B8       		.byte	-72
 3030 058d B0       		.byte	-80
 3031 058e A8       		.byte	-88
 3032 058f 8A       		.byte	-118
 3033 0590 9A       		.byte	-102
 3034 0591 F5       		.byte	-11
 3035 0592 20       		.byte	32
 3036 0593 AA       		.byte	-86
 3037 0594 DA       		.byte	-38
 3038 0595 DF       		.byte	-33
 3039 0596 D8       		.byte	-40
 3040 0597 A8       		.byte	-88
 3041 0598 40       		.byte	64
 3042 0599 AA       		.byte	-86
 3043 059a D0       		.byte	-48
 3044 059b DA       		.byte	-38
 3045 059c DE       		.byte	-34
 3046 059d D8       		.byte	-40
 3047 059e A8       		.byte	-88
 3048 059f 60       		.byte	96
 3049 05a0 AA       		.byte	-86
 3050 05a1 DA       		.byte	-38
 3051 05a2 D0       		.byte	-48
ARM GAS  /tmp/ccKYPvWI.s 			page 62


 3052 05a3 DF       		.byte	-33
 3053 05a4 D8       		.byte	-40
 3054 05a5 F1       		.byte	-15
 3055 05a6 97       		.byte	-105
 3056 05a7 86       		.byte	-122
 3057 05a8 A8       		.byte	-88
 3058 05a9 31       		.byte	49
 3059 05aa 9B       		.byte	-101
 3060 05ab 06       		.byte	6
 3061 05ac 99       		.byte	-103
 3062 05ad 07       		.byte	7
 3063 05ae AB       		.byte	-85
 3064 05af 97       		.byte	-105
 3065 05b0 28       		.byte	40
 3066 05b1 88       		.byte	-120
 3067 05b2 9B       		.byte	-101
 3068 05b3 F0       		.byte	-16
 3069 05b4 0C       		.byte	12
 3070 05b5 20       		.byte	32
 3071 05b6 14       		.byte	20
 3072 05b7 40       		.byte	64
 3073 05b8 B8       		.byte	-72
 3074 05b9 B0       		.byte	-80
 3075 05ba B4       		.byte	-76
 3076 05bb A8       		.byte	-88
 3077 05bc 8C       		.byte	-116
 3078 05bd 9C       		.byte	-100
 3079 05be F0       		.byte	-16
 3080 05bf 04       		.byte	4
 3081 05c0 28       		.byte	40
 3082 05c1 51       		.byte	81
 3083 05c2 79       		.byte	121
 3084 05c3 1D       		.byte	29
 3085 05c4 30       		.byte	48
 3086 05c5 14       		.byte	20
 3087 05c6 38       		.byte	56
 3088 05c7 B2       		.byte	-78
 3089 05c8 82       		.byte	-126
 3090 05c9 AB       		.byte	-85
 3091 05ca D0       		.byte	-48
 3092 05cb 98       		.byte	-104
 3093 05cc 2C       		.byte	44
 3094 05cd 50       		.byte	80
 3095 05ce 50       		.byte	80
 3096 05cf 78       		.byte	120
 3097 05d0 78       		.byte	120
 3098 05d1 9B       		.byte	-101
 3099 05d2 F1       		.byte	-15
 3100 05d3 1A       		.byte	26
 3101 05d4 B0       		.byte	-80
 3102 05d5 F0       		.byte	-16
 3103 05d6 8A       		.byte	-118
 3104 05d7 9C       		.byte	-100
 3105 05d8 A8       		.byte	-88
 3106 05d9 29       		.byte	41
 3107 05da 51       		.byte	81
 3108 05db 79       		.byte	121
ARM GAS  /tmp/ccKYPvWI.s 			page 63


 3109 05dc 8B       		.byte	-117
 3110 05dd 29       		.byte	41
 3111 05de 51       		.byte	81
 3112 05df 79       		.byte	121
 3113 05e0 8A       		.byte	-118
 3114 05e1 24       		.byte	36
 3115 05e2 70       		.byte	112
 3116 05e3 59       		.byte	89
 3117 05e4 8B       		.byte	-117
 3118 05e5 20       		.byte	32
 3119 05e6 58       		.byte	88
 3120 05e7 71       		.byte	113
 3121 05e8 8A       		.byte	-118
 3122 05e9 44       		.byte	68
 3123 05ea 69       		.byte	105
 3124 05eb 38       		.byte	56
 3125 05ec 8B       		.byte	-117
 3126 05ed 39       		.byte	57
 3127 05ee 40       		.byte	64
 3128 05ef 68       		.byte	104
 3129 05f0 8A       		.byte	-118
 3130 05f1 64       		.byte	100
 3131 05f2 48       		.byte	72
 3132 05f3 31       		.byte	49
 3133 05f4 8B       		.byte	-117
 3134 05f5 30       		.byte	48
 3135 05f6 49       		.byte	73
 3136 05f7 60       		.byte	96
 3137 05f8 A5       		.byte	-91
 3138 05f9 88       		.byte	-120
 3139 05fa 20       		.byte	32
 3140 05fb 09       		.byte	9
 3141 05fc 71       		.byte	113
 3142 05fd 58       		.byte	88
 3143 05fe 44       		.byte	68
 3144 05ff 68       		.byte	104
 3145 0600 11       		.byte	17
 3146 0601 39       		.byte	57
 3147 0602 64       		.byte	100
 3148 0603 49       		.byte	73
 3149 0604 30       		.byte	48
 3150 0605 19       		.byte	25
 3151 0606 F1       		.byte	-15
 3152 0607 AC       		.byte	-84
 3153 0608 00       		.byte	0
 3154 0609 2C       		.byte	44
 3155 060a 54       		.byte	84
 3156 060b 7C       		.byte	124
 3157 060c F0       		.byte	-16
 3158 060d 8C       		.byte	-116
 3159 060e A8       		.byte	-88
 3160 060f 04       		.byte	4
 3161 0610 28       		.byte	40
 3162 0611 50       		.byte	80
 3163 0612 78       		.byte	120
 3164 0613 F1       		.byte	-15
 3165 0614 88       		.byte	-120
ARM GAS  /tmp/ccKYPvWI.s 			page 64


 3166 0615 97       		.byte	-105
 3167 0616 26       		.byte	38
 3168 0617 A8       		.byte	-88
 3169 0618 59       		.byte	89
 3170 0619 98       		.byte	-104
 3171 061a AC       		.byte	-84
 3172 061b 8C       		.byte	-116
 3173 061c 02       		.byte	2
 3174 061d 26       		.byte	38
 3175 061e 46       		.byte	70
 3176 061f 66       		.byte	102
 3177 0620 F0       		.byte	-16
 3178 0621 89       		.byte	-119
 3179 0622 9C       		.byte	-100
 3180 0623 A8       		.byte	-88
 3181 0624 29       		.byte	41
 3182 0625 51       		.byte	81
 3183 0626 79       		.byte	121
 3184 0627 24       		.byte	36
 3185 0628 70       		.byte	112
 3186 0629 59       		.byte	89
 3187 062a 44       		.byte	68
 3188 062b 69       		.byte	105
 3189 062c 38       		.byte	56
 3190 062d 64       		.byte	100
 3191 062e 48       		.byte	72
 3192 062f 31       		.byte	49
 3193 0630 A9       		.byte	-87
 3194 0631 88       		.byte	-120
 3195 0632 09       		.byte	9
 3196 0633 20       		.byte	32
 3197 0634 59       		.byte	89
 3198 0635 70       		.byte	112
 3199 0636 AB       		.byte	-85
 3200 0637 11       		.byte	17
 3201 0638 38       		.byte	56
 3202 0639 40       		.byte	64
 3203 063a 69       		.byte	105
 3204 063b A8       		.byte	-88
 3205 063c 19       		.byte	25
 3206 063d 31       		.byte	49
 3207 063e 48       		.byte	72
 3208 063f 60       		.byte	96
 3209 0640 8C       		.byte	-116
 3210 0641 A8       		.byte	-88
 3211 0642 3C       		.byte	60
 3212 0643 41       		.byte	65
 3213 0644 5C       		.byte	92
 3214 0645 20       		.byte	32
 3215 0646 7C       		.byte	124
 3216 0647 00       		.byte	0
 3217 0648 F1       		.byte	-15
 3218 0649 87       		.byte	-121
 3219 064a 98       		.byte	-104
 3220 064b 19       		.byte	25
 3221 064c 86       		.byte	-122
 3222 064d A8       		.byte	-88
ARM GAS  /tmp/ccKYPvWI.s 			page 65


 3223 064e 6E       		.byte	110
 3224 064f 76       		.byte	118
 3225 0650 7E       		.byte	126
 3226 0651 A9       		.byte	-87
 3227 0652 99       		.byte	-103
 3228 0653 88       		.byte	-120
 3229 0654 2D       		.byte	45
 3230 0655 55       		.byte	85
 3231 0656 7D       		.byte	125
 3232 0657 9E       		.byte	-98
 3233 0658 B9       		.byte	-71
 3234 0659 A3       		.byte	-93
 3235 065a 8A       		.byte	-118
 3236 065b 22       		.byte	34
 3237 065c 8A       		.byte	-118
 3238 065d 6E       		.byte	110
 3239 065e 8A       		.byte	-118
 3240 065f 56       		.byte	86
 3241 0660 8A       		.byte	-118
 3242 0661 5E       		.byte	94
 3243 0662 9F       		.byte	-97
 3244 0663 B1       		.byte	-79
 3245 0664 83       		.byte	-125
 3246 0665 06       		.byte	6
 3247 0666 26       		.byte	38
 3248 0667 46       		.byte	70
 3249 0668 66       		.byte	102
 3250 0669 0E       		.byte	14
 3251 066a 2E       		.byte	46
 3252 066b 4E       		.byte	78
 3253 066c 6E       		.byte	110
 3254 066d 9D       		.byte	-99
 3255 066e B8       		.byte	-72
 3256 066f AD       		.byte	-83
 3257 0670 00       		.byte	0
 3258 0671 2C       		.byte	44
 3259 0672 54       		.byte	84
 3260 0673 7C       		.byte	124
 3261 0674 F2       		.byte	-14
 3262 0675 B1       		.byte	-79
 3263 0676 8C       		.byte	-116
 3264 0677 B4       		.byte	-76
 3265 0678 99       		.byte	-103
 3266 0679 B9       		.byte	-71
 3267 067a A3       		.byte	-93
 3268 067b 2D       		.byte	45
 3269 067c 55       		.byte	85
 3270 067d 7D       		.byte	125
 3271 067e 81       		.byte	-127
 3272 067f 91       		.byte	-111
 3273 0680 AC       		.byte	-84
 3274 0681 38       		.byte	56
 3275 0682 AD       		.byte	-83
 3276 0683 3A       		.byte	58
 3277 0684 B5       		.byte	-75
 3278 0685 83       		.byte	-125
 3279 0686 91       		.byte	-111
ARM GAS  /tmp/ccKYPvWI.s 			page 66


 3280 0687 AC       		.byte	-84
 3281 0688 2D       		.byte	45
 3282 0689 D9       		.byte	-39
 3283 068a 28       		.byte	40
 3284 068b D8       		.byte	-40
 3285 068c 4D       		.byte	77
 3286 068d D9       		.byte	-39
 3287 068e 48       		.byte	72
 3288 068f D8       		.byte	-40
 3289 0690 6D       		.byte	109
 3290 0691 D9       		.byte	-39
 3291 0692 68       		.byte	104
 3292 0693 D8       		.byte	-40
 3293 0694 8C       		.byte	-116
 3294 0695 9D       		.byte	-99
 3295 0696 AE       		.byte	-82
 3296 0697 29       		.byte	41
 3297 0698 D9       		.byte	-39
 3298 0699 04       		.byte	4
 3299 069a AE       		.byte	-82
 3300 069b D8       		.byte	-40
 3301 069c 51       		.byte	81
 3302 069d D9       		.byte	-39
 3303 069e 04       		.byte	4
 3304 069f AE       		.byte	-82
 3305 06a0 D8       		.byte	-40
 3306 06a1 79       		.byte	121
 3307 06a2 D9       		.byte	-39
 3308 06a3 04       		.byte	4
 3309 06a4 D8       		.byte	-40
 3310 06a5 81       		.byte	-127
 3311 06a6 F3       		.byte	-13
 3312 06a7 9D       		.byte	-99
 3313 06a8 AD       		.byte	-83
 3314 06a9 00       		.byte	0
 3315 06aa 8D       		.byte	-115
 3316 06ab AE       		.byte	-82
 3317 06ac 19       		.byte	25
 3318 06ad 81       		.byte	-127
 3319 06ae AD       		.byte	-83
 3320 06af D9       		.byte	-39
 3321 06b0 01       		.byte	1
 3322 06b1 D8       		.byte	-40
 3323 06b2 F2       		.byte	-14
 3324 06b3 AE       		.byte	-82
 3325 06b4 DA       		.byte	-38
 3326 06b5 26       		.byte	38
 3327 06b6 D8       		.byte	-40
 3328 06b7 8E       		.byte	-114
 3329 06b8 91       		.byte	-111
 3330 06b9 29       		.byte	41
 3331 06ba 83       		.byte	-125
 3332 06bb A7       		.byte	-89
 3333 06bc D9       		.byte	-39
 3334 06bd AD       		.byte	-83
 3335 06be AD       		.byte	-83
 3336 06bf AD       		.byte	-83
ARM GAS  /tmp/ccKYPvWI.s 			page 67


 3337 06c0 AD       		.byte	-83
 3338 06c1 F3       		.byte	-13
 3339 06c2 2A       		.byte	42
 3340 06c3 D8       		.byte	-40
 3341 06c4 D8       		.byte	-40
 3342 06c5 F1       		.byte	-15
 3343 06c6 B0       		.byte	-80
 3344 06c7 AC       		.byte	-84
 3345 06c8 89       		.byte	-119
 3346 06c9 91       		.byte	-111
 3347 06ca 3E       		.byte	62
 3348 06cb 5E       		.byte	94
 3349 06cc 76       		.byte	118
 3350 06cd F3       		.byte	-13
 3351 06ce AC       		.byte	-84
 3352 06cf 2E       		.byte	46
 3353 06d0 2E       		.byte	46
 3354 06d1 F1       		.byte	-15
 3355 06d2 B1       		.byte	-79
 3356 06d3 8C       		.byte	-116
 3357 06d4 5A       		.byte	90
 3358 06d5 9C       		.byte	-100
 3359 06d6 AC       		.byte	-84
 3360 06d7 2C       		.byte	44
 3361 06d8 28       		.byte	40
 3362 06d9 28       		.byte	40
 3363 06da 28       		.byte	40
 3364 06db 9C       		.byte	-100
 3365 06dc AC       		.byte	-84
 3366 06dd 30       		.byte	48
 3367 06de 18       		.byte	24
 3368 06df A8       		.byte	-88
 3369 06e0 98       		.byte	-104
 3370 06e1 81       		.byte	-127
 3371 06e2 28       		.byte	40
 3372 06e3 34       		.byte	52
 3373 06e4 3C       		.byte	60
 3374 06e5 97       		.byte	-105
 3375 06e6 24       		.byte	36
 3376 06e7 A7       		.byte	-89
 3377 06e8 28       		.byte	40
 3378 06e9 34       		.byte	52
 3379 06ea 3C       		.byte	60
 3380 06eb 9C       		.byte	-100
 3381 06ec 24       		.byte	36
 3382 06ed F2       		.byte	-14
 3383 06ee B0       		.byte	-80
 3384 06ef 89       		.byte	-119
 3385 06f0 AC       		.byte	-84
 3386 06f1 91       		.byte	-111
 3387 06f2 2C       		.byte	44
 3388 06f3 4C       		.byte	76
 3389 06f4 6C       		.byte	108
 3390 06f5 8A       		.byte	-118
 3391 06f6 9B       		.byte	-101
 3392 06f7 2D       		.byte	45
 3393 06f8 D9       		.byte	-39
ARM GAS  /tmp/ccKYPvWI.s 			page 68


 3394 06f9 D8       		.byte	-40
 3395 06fa D8       		.byte	-40
 3396 06fb 51       		.byte	81
 3397 06fc D9       		.byte	-39
 3398 06fd D8       		.byte	-40
 3399 06fe D8       		.byte	-40
 3400 06ff 79       		.byte	121
 3401 0700 D9       		.byte	-39
 3402 0701 D8       		.byte	-40
 3403 0702 D8       		.byte	-40
 3404 0703 F1       		.byte	-15
 3405 0704 9E       		.byte	-98
 3406 0705 88       		.byte	-120
 3407 0706 A3       		.byte	-93
 3408 0707 31       		.byte	49
 3409 0708 DA       		.byte	-38
 3410 0709 D8       		.byte	-40
 3411 070a D8       		.byte	-40
 3412 070b 91       		.byte	-111
 3413 070c 2D       		.byte	45
 3414 070d D9       		.byte	-39
 3415 070e 28       		.byte	40
 3416 070f D8       		.byte	-40
 3417 0710 4D       		.byte	77
 3418 0711 D9       		.byte	-39
 3419 0712 48       		.byte	72
 3420 0713 D8       		.byte	-40
 3421 0714 6D       		.byte	109
 3422 0715 D9       		.byte	-39
 3423 0716 68       		.byte	104
 3424 0717 D8       		.byte	-40
 3425 0718 B1       		.byte	-79
 3426 0719 83       		.byte	-125
 3427 071a 93       		.byte	-109
 3428 071b 35       		.byte	53
 3429 071c 3D       		.byte	61
 3430 071d 80       		.byte	-128
 3431 071e 25       		.byte	37
 3432 071f DA       		.byte	-38
 3433 0720 D8       		.byte	-40
 3434 0721 D8       		.byte	-40
 3435 0722 85       		.byte	-123
 3436 0723 69       		.byte	105
 3437 0724 DA       		.byte	-38
 3438 0725 D8       		.byte	-40
 3439 0726 D8       		.byte	-40
 3440 0727 B4       		.byte	-76
 3441 0728 93       		.byte	-109
 3442 0729 81       		.byte	-127
 3443 072a A3       		.byte	-93
 3444 072b 28       		.byte	40
 3445 072c 34       		.byte	52
 3446 072d 3C       		.byte	60
 3447 072e F3       		.byte	-13
 3448 072f AB       		.byte	-85
 3449 0730 8B       		.byte	-117
 3450 0731 F8       		.byte	-8
ARM GAS  /tmp/ccKYPvWI.s 			page 69


 3451 0732 A3       		.byte	-93
 3452 0733 91       		.byte	-111
 3453 0734 B6       		.byte	-74
 3454 0735 09       		.byte	9
 3455 0736 B4       		.byte	-76
 3456 0737 D9       		.byte	-39
 3457 0738 AB       		.byte	-85
 3458 0739 DE       		.byte	-34
 3459 073a FA       		.byte	-6
 3460 073b B0       		.byte	-80
 3461 073c 87       		.byte	-121
 3462 073d 9C       		.byte	-100
 3463 073e B9       		.byte	-71
 3464 073f A3       		.byte	-93
 3465 0740 DD       		.byte	-35
 3466 0741 F1       		.byte	-15
 3467 0742 A3       		.byte	-93
 3468 0743 A3       		.byte	-93
 3469 0744 A3       		.byte	-93
 3470 0745 A3       		.byte	-93
 3471 0746 95       		.byte	-107
 3472 0747 F1       		.byte	-15
 3473 0748 A3       		.byte	-93
 3474 0749 A3       		.byte	-93
 3475 074a A3       		.byte	-93
 3476 074b 9D       		.byte	-99
 3477 074c F1       		.byte	-15
 3478 074d A3       		.byte	-93
 3479 074e A3       		.byte	-93
 3480 074f A3       		.byte	-93
 3481 0750 A3       		.byte	-93
 3482 0751 F2       		.byte	-14
 3483 0752 A3       		.byte	-93
 3484 0753 B4       		.byte	-76
 3485 0754 90       		.byte	-112
 3486 0755 80       		.byte	-128
 3487 0756 F2       		.byte	-14
 3488 0757 A3       		.byte	-93
 3489 0758 A3       		.byte	-93
 3490 0759 A3       		.byte	-93
 3491 075a A3       		.byte	-93
 3492 075b A3       		.byte	-93
 3493 075c A3       		.byte	-93
 3494 075d A3       		.byte	-93
 3495 075e A3       		.byte	-93
 3496 075f A3       		.byte	-93
 3497 0760 A3       		.byte	-93
 3498 0761 B2       		.byte	-78
 3499 0762 A3       		.byte	-93
 3500 0763 A3       		.byte	-93
 3501 0764 A3       		.byte	-93
 3502 0765 A3       		.byte	-93
 3503 0766 A3       		.byte	-93
 3504 0767 A3       		.byte	-93
 3505 0768 B0       		.byte	-80
 3506 0769 87       		.byte	-121
 3507 076a B5       		.byte	-75
ARM GAS  /tmp/ccKYPvWI.s 			page 70


 3508 076b 99       		.byte	-103
 3509 076c F1       		.byte	-15
 3510 076d A3       		.byte	-93
 3511 076e A3       		.byte	-93
 3512 076f A3       		.byte	-93
 3513 0770 98       		.byte	-104
 3514 0771 F1       		.byte	-15
 3515 0772 A3       		.byte	-93
 3516 0773 A3       		.byte	-93
 3517 0774 A3       		.byte	-93
 3518 0775 A3       		.byte	-93
 3519 0776 97       		.byte	-105
 3520 0777 A3       		.byte	-93
 3521 0778 A3       		.byte	-93
 3522 0779 A3       		.byte	-93
 3523 077a A3       		.byte	-93
 3524 077b F3       		.byte	-13
 3525 077c 9B       		.byte	-101
 3526 077d A3       		.byte	-93
 3527 077e A3       		.byte	-93
 3528 077f DC       		.byte	-36
 3529 0780 B9       		.byte	-71
 3530 0781 A7       		.byte	-89
 3531 0782 F1       		.byte	-15
 3532 0783 26       		.byte	38
 3533 0784 26       		.byte	38
 3534 0785 26       		.byte	38
 3535 0786 D8       		.byte	-40
 3536 0787 D8       		.byte	-40
 3537 0788 FF       		.byte	-1
 3538              		.text
 3539              	.Letext0:
 3540              		.file 2 "/usr/include/newlib/machine/_default_types.h"
 3541              		.file 3 "/usr/include/newlib/sys/_stdint.h"
 3542              		.file 4 "Drivers/CMSIS/Include/core_cm3.h"
 3543              		.file 5 "Drivers/CMSIS/Device/ST/STM32F1xx/Include/system_stm32f1xx.h"
 3544              		.file 6 "Drivers/CMSIS/Device/ST/STM32F1xx/Include/stm32f103xb.h"
 3545              		.file 7 "/usr/include/newlib/sys/lock.h"
 3546              		.file 8 "/usr/include/newlib/sys/_types.h"
 3547              		.file 9 "/usr/lib/gcc/arm-none-eabi/6.3.1/include/stddef.h"
 3548              		.file 10 "/usr/include/newlib/sys/reent.h"
 3549              		.file 11 "Drivers/STM32F1xx_HAL_Driver/Inc/stm32f1xx_hal_def.h"
 3550              		.file 12 "Drivers/STM32F1xx_HAL_Driver/Inc/stm32f1xx_hal_dma.h"
 3551              		.file 13 "Drivers/STM32F1xx_HAL_Driver/Inc/stm32f1xx_hal_i2c.h"
 3552              		.file 14 "/usr/include/newlib/math.h"
 3553              		.file 15 "Inc/mpu9250.h"
ARM GAS  /tmp/ccKYPvWI.s 			page 71


DEFINED SYMBOLS
                            *ABS*:0000000000000000 mpu9250.c
     /tmp/ccKYPvWI.s:16     .text.IICreadBytes:0000000000000000 $t
     /tmp/ccKYPvWI.s:22     .text.IICreadBytes:0000000000000000 IICreadBytes
     /tmp/ccKYPvWI.s:62     .text.IICreadBytes:0000000000000020 $d
     /tmp/ccKYPvWI.s:67     .text.IIC_ReadOneByte:0000000000000000 $t
     /tmp/ccKYPvWI.s:73     .text.IIC_ReadOneByte:0000000000000000 IIC_ReadOneByte
     /tmp/ccKYPvWI.s:111    .text.IIC_ReadOneByte:0000000000000028 $d
     /tmp/ccKYPvWI.s:116    .text.IICwriteByte:0000000000000000 $t
     /tmp/ccKYPvWI.s:122    .text.IICwriteByte:0000000000000000 IICwriteByte
     /tmp/ccKYPvWI.s:163    .text.IICwriteByte:0000000000000024 $d
     /tmp/ccKYPvWI.s:168    .text.IICwriteBit:0000000000000000 $t
     /tmp/ccKYPvWI.s:174    .text.IICwriteBit:0000000000000000 IICwriteBit
     /tmp/ccKYPvWI.s:264    .text.IICwriteBit:000000000000006c $d
     /tmp/ccKYPvWI.s:269    .text.Delayms:0000000000000000 $t
     /tmp/ccKYPvWI.s:276    .text.Delayms:0000000000000000 Delayms
     /tmp/ccKYPvWI.s:311    .text.readdmp:0000000000000000 $t
     /tmp/ccKYPvWI.s:318    .text.readdmp:0000000000000000 readdmp
     /tmp/ccKYPvWI.s:346    .text.readdmp:000000000000001c $d
                            *COM*:000000000000002a dmpdatas
     /tmp/ccKYPvWI.s:351    .text.getdmplong:0000000000000000 $t
     /tmp/ccKYPvWI.s:358    .text.getdmplong:0000000000000000 getdmplong
     /tmp/ccKYPvWI.s:392    .text.getdmplong:0000000000000020 $d
     /tmp/ccKYPvWI.s:400    .text.getquaternion:0000000000000000 $t
     /tmp/ccKYPvWI.s:407    .text.getquaternion:0000000000000000 getquaternion
     /tmp/ccKYPvWI.s:475    .text.getquaternion:0000000000000068 $d
                            *COM*:0000000000000010 q
     /tmp/ccKYPvWI.s:487    .text.getyawpitchroll:0000000000000000 $t
     /tmp/ccKYPvWI.s:494    .text.getyawpitchroll:0000000000000000 getyawpitchroll
     /tmp/ccKYPvWI.s:689    .text.getyawpitchroll:0000000000000158 $d
                            *COM*:000000000000000c yprf
     /tmp/ccKYPvWI.s:698    .text.getAcc_gyro:0000000000000000 $t
     /tmp/ccKYPvWI.s:705    .text.getAcc_gyro:0000000000000000 getAcc_gyro
     /tmp/ccKYPvWI.s:821    .text.getAcc_gyro:00000000000000d8 $d
                            *COM*:000000000000000c accelf
                            *COM*:000000000000000c gyrof
     /tmp/ccKYPvWI.s:829    .text.getmag:0000000000000000 $t
     /tmp/ccKYPvWI.s:836    .text.getmag:0000000000000000 getmag
     /tmp/ccKYPvWI.s:934    .text.getmag:0000000000000098 $d
                            *COM*:000000000000000c mag
     /tmp/ccKYPvWI.s:941    .text.loadfirmware:0000000000000000 $t
     /tmp/ccKYPvWI.s:948    .text.loadfirmware:0000000000000000 loadfirmware
     /tmp/ccKYPvWI.s:1013   .text.loadfirmware:0000000000000040 $d
     /tmp/ccKYPvWI.s:1018   .text.loadcfgupd:0000000000000000 $t
     /tmp/ccKYPvWI.s:1025   .text.loadcfgupd:0000000000000000 loadcfgupd
     /tmp/ccKYPvWI.s:1125   .text.loadcfgupd:0000000000000054 $d
     /tmp/ccKYPvWI.s:1130   .text.MPU9250_Sleep:0000000000000000 $t
     /tmp/ccKYPvWI.s:1137   .text.MPU9250_Sleep:0000000000000000 MPU9250_Sleep
     /tmp/ccKYPvWI.s:1159   .text.MPU9250_WakeUp:0000000000000000 $t
     /tmp/ccKYPvWI.s:1166   .text.MPU9250_WakeUp:0000000000000000 MPU9250_WakeUp
     /tmp/ccKYPvWI.s:1188   .text.MPU9250_resetFIFO:0000000000000000 $t
     /tmp/ccKYPvWI.s:1195   .text.MPU9250_resetFIFO:0000000000000000 MPU9250_resetFIFO
     /tmp/ccKYPvWI.s:1218   .text.MPU9250_getFIFOCount:0000000000000000 $t
     /tmp/ccKYPvWI.s:1225   .text.MPU9250_getFIFOCount:0000000000000000 MPU9250_getFIFOCount
     /tmp/ccKYPvWI.s:1262   .text.Init_MPU9250_With_DMP:0000000000000000 $t
     /tmp/ccKYPvWI.s:1269   .text.Init_MPU9250_With_DMP:0000000000000000 Init_MPU9250_With_DMP
     /tmp/ccKYPvWI.s:1363   .rodata.dmpcfgupddata:0000000000000000 dmpcfgupddata
ARM GAS  /tmp/ccKYPvWI.s 			page 72


     /tmp/ccKYPvWI.s:1608   .rodata.dmpmemorydata:0000000000000000 dmpmemorydata
     /tmp/ccKYPvWI.s:1359   .rodata.dmpcfgupddata:0000000000000000 $d
     /tmp/ccKYPvWI.s:1604   .rodata.dmpmemorydata:0000000000000000 $d
                     .debug_frame:0000000000000010 $d

UNDEFINED SYMBOLS
HAL_I2C_Mem_Read
hi2c1
HAL_I2C_Mem_Write
__aeabi_i2d
__aeabi_dmul
__aeabi_d2f
__aeabi_fmul
__aeabi_fadd
__aeabi_f2d
__aeabi_dadd
__aeabi_dsub
__aeabi_fsub
atan2
asin
